
hex_bin_converter.elf:     file format elf32-littlearm

Sections:
Idx Name          Size      VMA       LMA       File off  Algn
  0 .isr_vector   000000b8  08000000  08000000  00010000  2**0
                  CONTENTS, ALLOC, LOAD, READONLY, DATA
  1 .text         00001734  080000b8  080000b8  000100b8  2**2
                  CONTENTS, ALLOC, LOAD, READONLY, CODE
  2 .rodata       00000120  080017ec  080017ec  000117ec  2**2
                  CONTENTS, ALLOC, LOAD, READONLY, DATA
  3 .ARM.extab    00000000  0800190c  0800190c  00020088  2**0
                  CONTENTS
  4 .ARM          00000000  0800190c  0800190c  00020088  2**0
                  CONTENTS
  5 .preinit_array 00000000  0800190c  0800190c  00020088  2**0
                  CONTENTS, ALLOC, LOAD, DATA
  6 .init_array   00000004  0800190c  0800190c  0001190c  2**2
                  CONTENTS, ALLOC, LOAD, DATA
  7 .fini_array   00000004  08001910  08001910  00011910  2**2
                  CONTENTS, ALLOC, LOAD, DATA
  8 .data         00000088  20000000  08001914  00020000  2**2
                  CONTENTS, ALLOC, LOAD, DATA
  9 .bss          00000158  20000088  0800199c  00020088  2**2
                  ALLOC
 10 ._user_heap_stack 00000600  200001e0  0800199c  000201e0  2**0
                  ALLOC
 11 .ARM.attributes 00000028  00000000  00000000  00020088  2**0
                  CONTENTS, READONLY
 12 .comment      00000050  00000000  00000000  000200b0  2**0
                  CONTENTS, READONLY
 13 .debug_frame  0000006c  00000000  00000000  00020100  2**2
                  CONTENTS, READONLY, DEBUGGING, OCTETS

Disassembly of section .text:

080000b8 <__do_global_dtors_aux>:
 80000b8:	b510      	push	{r4, lr}
 80000ba:	4c06      	ldr	r4, [pc, #24]	; (80000d4 <__do_global_dtors_aux+0x1c>)
 80000bc:	7823      	ldrb	r3, [r4, #0]
 80000be:	2b00      	cmp	r3, #0
 80000c0:	d107      	bne.n	80000d2 <__do_global_dtors_aux+0x1a>
 80000c2:	4b05      	ldr	r3, [pc, #20]	; (80000d8 <__do_global_dtors_aux+0x20>)
 80000c4:	2b00      	cmp	r3, #0
 80000c6:	d002      	beq.n	80000ce <__do_global_dtors_aux+0x16>
 80000c8:	4804      	ldr	r0, [pc, #16]	; (80000dc <__do_global_dtors_aux+0x24>)
 80000ca:	e000      	b.n	80000ce <__do_global_dtors_aux+0x16>
 80000cc:	bf00      	nop
 80000ce:	2301      	movs	r3, #1
 80000d0:	7023      	strb	r3, [r4, #0]
 80000d2:	bd10      	pop	{r4, pc}
 80000d4:	20000088 	.word	0x20000088
 80000d8:	00000000 	.word	0x00000000
 80000dc:	080017d4 	.word	0x080017d4

080000e0 <frame_dummy>:
 80000e0:	4b04      	ldr	r3, [pc, #16]	; (80000f4 <frame_dummy+0x14>)
 80000e2:	b510      	push	{r4, lr}
 80000e4:	2b00      	cmp	r3, #0
 80000e6:	d003      	beq.n	80000f0 <frame_dummy+0x10>
 80000e8:	4903      	ldr	r1, [pc, #12]	; (80000f8 <frame_dummy+0x18>)
 80000ea:	4804      	ldr	r0, [pc, #16]	; (80000fc <frame_dummy+0x1c>)
 80000ec:	e000      	b.n	80000f0 <frame_dummy+0x10>
 80000ee:	bf00      	nop
 80000f0:	bd10      	pop	{r4, pc}
 80000f2:	46c0      	nop			; (mov r8, r8)
 80000f4:	00000000 	.word	0x00000000
 80000f8:	2000008c 	.word	0x2000008c
 80000fc:	080017d4 	.word	0x080017d4

08000100 <__udivsi3>:
 8000100:	2200      	movs	r2, #0
 8000102:	0843      	lsrs	r3, r0, #1
 8000104:	428b      	cmp	r3, r1
 8000106:	d374      	bcc.n	80001f2 <__udivsi3+0xf2>
 8000108:	0903      	lsrs	r3, r0, #4
 800010a:	428b      	cmp	r3, r1
 800010c:	d35f      	bcc.n	80001ce <__udivsi3+0xce>
 800010e:	0a03      	lsrs	r3, r0, #8
 8000110:	428b      	cmp	r3, r1
 8000112:	d344      	bcc.n	800019e <__udivsi3+0x9e>
 8000114:	0b03      	lsrs	r3, r0, #12
 8000116:	428b      	cmp	r3, r1
 8000118:	d328      	bcc.n	800016c <__udivsi3+0x6c>
 800011a:	0c03      	lsrs	r3, r0, #16
 800011c:	428b      	cmp	r3, r1
 800011e:	d30d      	bcc.n	800013c <__udivsi3+0x3c>
 8000120:	22ff      	movs	r2, #255	; 0xff
 8000122:	0209      	lsls	r1, r1, #8
 8000124:	ba12      	rev	r2, r2
 8000126:	0c03      	lsrs	r3, r0, #16
 8000128:	428b      	cmp	r3, r1
 800012a:	d302      	bcc.n	8000132 <__udivsi3+0x32>
 800012c:	1212      	asrs	r2, r2, #8
 800012e:	0209      	lsls	r1, r1, #8
 8000130:	d065      	beq.n	80001fe <__udivsi3+0xfe>
 8000132:	0b03      	lsrs	r3, r0, #12
 8000134:	428b      	cmp	r3, r1
 8000136:	d319      	bcc.n	800016c <__udivsi3+0x6c>
 8000138:	e000      	b.n	800013c <__udivsi3+0x3c>
 800013a:	0a09      	lsrs	r1, r1, #8
 800013c:	0bc3      	lsrs	r3, r0, #15
 800013e:	428b      	cmp	r3, r1
 8000140:	d301      	bcc.n	8000146 <__udivsi3+0x46>
 8000142:	03cb      	lsls	r3, r1, #15
 8000144:	1ac0      	subs	r0, r0, r3
 8000146:	4152      	adcs	r2, r2
 8000148:	0b83      	lsrs	r3, r0, #14
 800014a:	428b      	cmp	r3, r1
 800014c:	d301      	bcc.n	8000152 <__udivsi3+0x52>
 800014e:	038b      	lsls	r3, r1, #14
 8000150:	1ac0      	subs	r0, r0, r3
 8000152:	4152      	adcs	r2, r2
 8000154:	0b43      	lsrs	r3, r0, #13
 8000156:	428b      	cmp	r3, r1
 8000158:	d301      	bcc.n	800015e <__udivsi3+0x5e>
 800015a:	034b      	lsls	r3, r1, #13
 800015c:	1ac0      	subs	r0, r0, r3
 800015e:	4152      	adcs	r2, r2
 8000160:	0b03      	lsrs	r3, r0, #12
 8000162:	428b      	cmp	r3, r1
 8000164:	d301      	bcc.n	800016a <__udivsi3+0x6a>
 8000166:	030b      	lsls	r3, r1, #12
 8000168:	1ac0      	subs	r0, r0, r3
 800016a:	4152      	adcs	r2, r2
 800016c:	0ac3      	lsrs	r3, r0, #11
 800016e:	428b      	cmp	r3, r1
 8000170:	d301      	bcc.n	8000176 <__udivsi3+0x76>
 8000172:	02cb      	lsls	r3, r1, #11
 8000174:	1ac0      	subs	r0, r0, r3
 8000176:	4152      	adcs	r2, r2
 8000178:	0a83      	lsrs	r3, r0, #10
 800017a:	428b      	cmp	r3, r1
 800017c:	d301      	bcc.n	8000182 <__udivsi3+0x82>
 800017e:	028b      	lsls	r3, r1, #10
 8000180:	1ac0      	subs	r0, r0, r3
 8000182:	4152      	adcs	r2, r2
 8000184:	0a43      	lsrs	r3, r0, #9
 8000186:	428b      	cmp	r3, r1
 8000188:	d301      	bcc.n	800018e <__udivsi3+0x8e>
 800018a:	024b      	lsls	r3, r1, #9
 800018c:	1ac0      	subs	r0, r0, r3
 800018e:	4152      	adcs	r2, r2
 8000190:	0a03      	lsrs	r3, r0, #8
 8000192:	428b      	cmp	r3, r1
 8000194:	d301      	bcc.n	800019a <__udivsi3+0x9a>
 8000196:	020b      	lsls	r3, r1, #8
 8000198:	1ac0      	subs	r0, r0, r3
 800019a:	4152      	adcs	r2, r2
 800019c:	d2cd      	bcs.n	800013a <__udivsi3+0x3a>
 800019e:	09c3      	lsrs	r3, r0, #7
 80001a0:	428b      	cmp	r3, r1
 80001a2:	d301      	bcc.n	80001a8 <__udivsi3+0xa8>
 80001a4:	01cb      	lsls	r3, r1, #7
 80001a6:	1ac0      	subs	r0, r0, r3
 80001a8:	4152      	adcs	r2, r2
 80001aa:	0983      	lsrs	r3, r0, #6
 80001ac:	428b      	cmp	r3, r1
 80001ae:	d301      	bcc.n	80001b4 <__udivsi3+0xb4>
 80001b0:	018b      	lsls	r3, r1, #6
 80001b2:	1ac0      	subs	r0, r0, r3
 80001b4:	4152      	adcs	r2, r2
 80001b6:	0943      	lsrs	r3, r0, #5
 80001b8:	428b      	cmp	r3, r1
 80001ba:	d301      	bcc.n	80001c0 <__udivsi3+0xc0>
 80001bc:	014b      	lsls	r3, r1, #5
 80001be:	1ac0      	subs	r0, r0, r3
 80001c0:	4152      	adcs	r2, r2
 80001c2:	0903      	lsrs	r3, r0, #4
 80001c4:	428b      	cmp	r3, r1
 80001c6:	d301      	bcc.n	80001cc <__udivsi3+0xcc>
 80001c8:	010b      	lsls	r3, r1, #4
 80001ca:	1ac0      	subs	r0, r0, r3
 80001cc:	4152      	adcs	r2, r2
 80001ce:	08c3      	lsrs	r3, r0, #3
 80001d0:	428b      	cmp	r3, r1
 80001d2:	d301      	bcc.n	80001d8 <__udivsi3+0xd8>
 80001d4:	00cb      	lsls	r3, r1, #3
 80001d6:	1ac0      	subs	r0, r0, r3
 80001d8:	4152      	adcs	r2, r2
 80001da:	0883      	lsrs	r3, r0, #2
 80001dc:	428b      	cmp	r3, r1
 80001de:	d301      	bcc.n	80001e4 <__udivsi3+0xe4>
 80001e0:	008b      	lsls	r3, r1, #2
 80001e2:	1ac0      	subs	r0, r0, r3
 80001e4:	4152      	adcs	r2, r2
 80001e6:	0843      	lsrs	r3, r0, #1
 80001e8:	428b      	cmp	r3, r1
 80001ea:	d301      	bcc.n	80001f0 <__udivsi3+0xf0>
 80001ec:	004b      	lsls	r3, r1, #1
 80001ee:	1ac0      	subs	r0, r0, r3
 80001f0:	4152      	adcs	r2, r2
 80001f2:	1a41      	subs	r1, r0, r1
 80001f4:	d200      	bcs.n	80001f8 <__udivsi3+0xf8>
 80001f6:	4601      	mov	r1, r0
 80001f8:	4152      	adcs	r2, r2
 80001fa:	4610      	mov	r0, r2
 80001fc:	4770      	bx	lr
 80001fe:	e7ff      	b.n	8000200 <__udivsi3+0x100>
 8000200:	b501      	push	{r0, lr}
 8000202:	2000      	movs	r0, #0
 8000204:	f000 f806 	bl	8000214 <__aeabi_idiv0>
 8000208:	bd02      	pop	{r1, pc}
 800020a:	46c0      	nop			; (mov r8, r8)

0800020c <__aeabi_uidivmod>:
 800020c:	2900      	cmp	r1, #0
 800020e:	d0f7      	beq.n	8000200 <__udivsi3+0x100>
 8000210:	e776      	b.n	8000100 <__udivsi3>
 8000212:	4770      	bx	lr

08000214 <__aeabi_idiv0>:
 8000214:	4770      	bx	lr
 8000216:	46c0      	nop			; (mov r8, r8)

08000218 <initConfigurationPin>:
 8000218:	b57f      	push	{r0, r1, r2, r3, r4, r5, r6, lr}
 800021a:	2210      	movs	r2, #16
 800021c:	2100      	movs	r1, #0
 800021e:	a802      	add	r0, sp, #8
 8000220:	f001 fad0 	bl	80017c4 <memset>
 8000224:	4b04      	ldr	r3, [pc, #16]	; (8000238 <initConfigurationPin+0x20>)
 8000226:	a901      	add	r1, sp, #4
 8000228:	889a      	ldrh	r2, [r3, #4]
 800022a:	6818      	ldr	r0, [r3, #0]
 800022c:	9201      	str	r2, [sp, #4]
 800022e:	f000 fd5d 	bl	8000cec <HAL_GPIO_Init>
 8000232:	b007      	add	sp, #28
 8000234:	bd00      	pop	{pc}
 8000236:	46c0      	nop			; (mov r8, r8)
 8000238:	20000000 	.word	0x20000000

0800023c <initBinToHexMode>:
 800023c:	b5f0      	push	{r4, r5, r6, r7, lr}
 800023e:	26a0      	movs	r6, #160	; 0xa0
 8000240:	b087      	sub	sp, #28
 8000242:	2214      	movs	r2, #20
 8000244:	2100      	movs	r1, #0
 8000246:	a801      	add	r0, sp, #4
 8000248:	f001 fabc 	bl	80017c4 <memset>
 800024c:	4c44      	ldr	r4, [pc, #272]	; (8000360 <initBinToHexMode+0x124>)
 800024e:	4f45      	ldr	r7, [pc, #276]	; (8000364 <initBinToHexMode+0x128>)
 8000250:	88a1      	ldrh	r1, [r4, #4]
 8000252:	88bb      	ldrh	r3, [r7, #4]
 8000254:	05f6      	lsls	r6, r6, #23
 8000256:	4319      	orrs	r1, r3
 8000258:	4b43      	ldr	r3, [pc, #268]	; (8000368 <initBinToHexMode+0x12c>)
 800025a:	0030      	movs	r0, r6
 800025c:	889b      	ldrh	r3, [r3, #4]
 800025e:	2200      	movs	r2, #0
 8000260:	4319      	orrs	r1, r3
 8000262:	4b42      	ldr	r3, [pc, #264]	; (800036c <initBinToHexMode+0x130>)
 8000264:	4d42      	ldr	r5, [pc, #264]	; (8000370 <initBinToHexMode+0x134>)
 8000266:	889b      	ldrh	r3, [r3, #4]
 8000268:	4319      	orrs	r1, r3
 800026a:	4b42      	ldr	r3, [pc, #264]	; (8000374 <initBinToHexMode+0x138>)
 800026c:	889b      	ldrh	r3, [r3, #4]
 800026e:	4319      	orrs	r1, r3
 8000270:	4b41      	ldr	r3, [pc, #260]	; (8000378 <initBinToHexMode+0x13c>)
 8000272:	889b      	ldrh	r3, [r3, #4]
 8000274:	4319      	orrs	r1, r3
 8000276:	4b41      	ldr	r3, [pc, #260]	; (800037c <initBinToHexMode+0x140>)
 8000278:	889b      	ldrh	r3, [r3, #4]
 800027a:	4319      	orrs	r1, r3
 800027c:	4b40      	ldr	r3, [pc, #256]	; (8000380 <initBinToHexMode+0x144>)
 800027e:	889b      	ldrh	r3, [r3, #4]
 8000280:	4319      	orrs	r1, r3
 8000282:	f000 fde7 	bl	8000e54 <HAL_GPIO_WritePin>
 8000286:	4b3f      	ldr	r3, [pc, #252]	; (8000384 <initBinToHexMode+0x148>)
 8000288:	0028      	movs	r0, r5
 800028a:	8899      	ldrh	r1, [r3, #4]
 800028c:	2200      	movs	r2, #0
 800028e:	f000 fde1 	bl	8000e54 <HAL_GPIO_WritePin>
 8000292:	88ba      	ldrh	r2, [r7, #4]
 8000294:	88a3      	ldrh	r3, [r4, #4]
 8000296:	2701      	movs	r7, #1
 8000298:	2400      	movs	r4, #0
 800029a:	4313      	orrs	r3, r2
 800029c:	4a32      	ldr	r2, [pc, #200]	; (8000368 <initBinToHexMode+0x12c>)
 800029e:	0030      	movs	r0, r6
 80002a0:	8892      	ldrh	r2, [r2, #4]
 80002a2:	a901      	add	r1, sp, #4
 80002a4:	4313      	orrs	r3, r2
 80002a6:	4a31      	ldr	r2, [pc, #196]	; (800036c <initBinToHexMode+0x130>)
 80002a8:	8892      	ldrh	r2, [r2, #4]
 80002aa:	4313      	orrs	r3, r2
 80002ac:	4a31      	ldr	r2, [pc, #196]	; (8000374 <initBinToHexMode+0x138>)
 80002ae:	8892      	ldrh	r2, [r2, #4]
 80002b0:	4313      	orrs	r3, r2
 80002b2:	4a31      	ldr	r2, [pc, #196]	; (8000378 <initBinToHexMode+0x13c>)
 80002b4:	8892      	ldrh	r2, [r2, #4]
 80002b6:	4313      	orrs	r3, r2
 80002b8:	4a30      	ldr	r2, [pc, #192]	; (800037c <initBinToHexMode+0x140>)
 80002ba:	8892      	ldrh	r2, [r2, #4]
 80002bc:	4313      	orrs	r3, r2
 80002be:	4a30      	ldr	r2, [pc, #192]	; (8000380 <initBinToHexMode+0x144>)
 80002c0:	8892      	ldrh	r2, [r2, #4]
 80002c2:	9702      	str	r7, [sp, #8]
 80002c4:	4313      	orrs	r3, r2
 80002c6:	9301      	str	r3, [sp, #4]
 80002c8:	9403      	str	r4, [sp, #12]
 80002ca:	9404      	str	r4, [sp, #16]
 80002cc:	f000 fd0e 	bl	8000cec <HAL_GPIO_Init>
 80002d0:	4b2d      	ldr	r3, [pc, #180]	; (8000388 <initBinToHexMode+0x14c>)
 80002d2:	4a2e      	ldr	r2, [pc, #184]	; (800038c <initBinToHexMode+0x150>)
 80002d4:	889b      	ldrh	r3, [r3, #4]
 80002d6:	8892      	ldrh	r2, [r2, #4]
 80002d8:	0030      	movs	r0, r6
 80002da:	4313      	orrs	r3, r2
 80002dc:	4a2c      	ldr	r2, [pc, #176]	; (8000390 <initBinToHexMode+0x154>)
 80002de:	a901      	add	r1, sp, #4
 80002e0:	8892      	ldrh	r2, [r2, #4]
 80002e2:	4313      	orrs	r3, r2
 80002e4:	4a2b      	ldr	r2, [pc, #172]	; (8000394 <initBinToHexMode+0x158>)
 80002e6:	8892      	ldrh	r2, [r2, #4]
 80002e8:	4313      	orrs	r3, r2
 80002ea:	4a2b      	ldr	r2, [pc, #172]	; (8000398 <initBinToHexMode+0x15c>)
 80002ec:	8892      	ldrh	r2, [r2, #4]
 80002ee:	4313      	orrs	r3, r2
 80002f0:	4a2a      	ldr	r2, [pc, #168]	; (800039c <initBinToHexMode+0x160>)
 80002f2:	8892      	ldrh	r2, [r2, #4]
 80002f4:	9402      	str	r4, [sp, #8]
 80002f6:	4313      	orrs	r3, r2
 80002f8:	9301      	str	r3, [sp, #4]
 80002fa:	9403      	str	r4, [sp, #12]
 80002fc:	f000 fcf6 	bl	8000cec <HAL_GPIO_Init>
 8000300:	4b20      	ldr	r3, [pc, #128]	; (8000384 <initBinToHexMode+0x148>)
 8000302:	0028      	movs	r0, r5
 8000304:	889b      	ldrh	r3, [r3, #4]
 8000306:	a901      	add	r1, sp, #4
 8000308:	9301      	str	r3, [sp, #4]
 800030a:	9702      	str	r7, [sp, #8]
 800030c:	9403      	str	r4, [sp, #12]
 800030e:	9404      	str	r4, [sp, #16]
 8000310:	f000 fcec 	bl	8000cec <HAL_GPIO_Init>
 8000314:	4b22      	ldr	r3, [pc, #136]	; (80003a0 <initBinToHexMode+0x164>)
 8000316:	4a23      	ldr	r2, [pc, #140]	; (80003a4 <initBinToHexMode+0x168>)
 8000318:	889b      	ldrh	r3, [r3, #4]
 800031a:	8892      	ldrh	r2, [r2, #4]
 800031c:	0028      	movs	r0, r5
 800031e:	4313      	orrs	r3, r2
 8000320:	4a21      	ldr	r2, [pc, #132]	; (80003a8 <initBinToHexMode+0x16c>)
 8000322:	a901      	add	r1, sp, #4
 8000324:	8892      	ldrh	r2, [r2, #4]
 8000326:	4313      	orrs	r3, r2
 8000328:	4a20      	ldr	r2, [pc, #128]	; (80003ac <initBinToHexMode+0x170>)
 800032a:	8892      	ldrh	r2, [r2, #4]
 800032c:	4313      	orrs	r3, r2
 800032e:	4a20      	ldr	r2, [pc, #128]	; (80003b0 <initBinToHexMode+0x174>)
 8000330:	8892      	ldrh	r2, [r2, #4]
 8000332:	4313      	orrs	r3, r2
 8000334:	4a1f      	ldr	r2, [pc, #124]	; (80003b4 <initBinToHexMode+0x178>)
 8000336:	8892      	ldrh	r2, [r2, #4]
 8000338:	4313      	orrs	r3, r2
 800033a:	4a1f      	ldr	r2, [pc, #124]	; (80003b8 <initBinToHexMode+0x17c>)
 800033c:	8892      	ldrh	r2, [r2, #4]
 800033e:	4313      	orrs	r3, r2
 8000340:	4a1e      	ldr	r2, [pc, #120]	; (80003bc <initBinToHexMode+0x180>)
 8000342:	8892      	ldrh	r2, [r2, #4]
 8000344:	4313      	orrs	r3, r2
 8000346:	4a1e      	ldr	r2, [pc, #120]	; (80003c0 <initBinToHexMode+0x184>)
 8000348:	8892      	ldrh	r2, [r2, #4]
 800034a:	4313      	orrs	r3, r2
 800034c:	4a1d      	ldr	r2, [pc, #116]	; (80003c4 <initBinToHexMode+0x188>)
 800034e:	8892      	ldrh	r2, [r2, #4]
 8000350:	9402      	str	r4, [sp, #8]
 8000352:	4313      	orrs	r3, r2
 8000354:	9301      	str	r3, [sp, #4]
 8000356:	9403      	str	r4, [sp, #12]
 8000358:	f000 fcc8 	bl	8000cec <HAL_GPIO_Init>
 800035c:	b007      	add	sp, #28
 800035e:	bdf0      	pop	{r4, r5, r6, r7, pc}
 8000360:	200000ac 	.word	0x200000ac
 8000364:	20000154 	.word	0x20000154
 8000368:	2000015c 	.word	0x2000015c
 800036c:	20000164 	.word	0x20000164
 8000370:	50000400 	.word	0x50000400
 8000374:	2000016c 	.word	0x2000016c
 8000378:	20000174 	.word	0x20000174
 800037c:	2000017c 	.word	0x2000017c
 8000380:	20000184 	.word	0x20000184
 8000384:	20000114 	.word	0x20000114
 8000388:	20000124 	.word	0x20000124
 800038c:	2000012c 	.word	0x2000012c
 8000390:	20000134 	.word	0x20000134
 8000394:	2000013c 	.word	0x2000013c
 8000398:	200000ec 	.word	0x200000ec
 800039c:	20000104 	.word	0x20000104
 80003a0:	200000f4 	.word	0x200000f4
 80003a4:	200000fc 	.word	0x200000fc
 80003a8:	200000a4 	.word	0x200000a4
 80003ac:	200000cc 	.word	0x200000cc
 80003b0:	200000d4 	.word	0x200000d4
 80003b4:	200000dc 	.word	0x200000dc
 80003b8:	200000e4 	.word	0x200000e4
 80003bc:	200000b4 	.word	0x200000b4
 80003c0:	200000bc 	.word	0x200000bc
 80003c4:	200000c4 	.word	0x200000c4

080003c8 <initPinParams>:
 80003c8:	4a32      	ldr	r2, [pc, #200]	; (8000494 <initPinParams+0xcc>)
 80003ca:	b530      	push	{r4, r5, lr}
 80003cc:	0013      	movs	r3, r2
 80003ce:	4932      	ldr	r1, [pc, #200]	; (8000498 <initPinParams+0xd0>)
 80003d0:	cb11      	ldmia	r3!, {r0, r4}
 80003d2:	c111      	stmia	r1!, {r0, r4}
 80003d4:	4931      	ldr	r1, [pc, #196]	; (800049c <initPinParams+0xd4>)
 80003d6:	cb11      	ldmia	r3!, {r0, r4}
 80003d8:	c111      	stmia	r1!, {r0, r4}
 80003da:	4931      	ldr	r1, [pc, #196]	; (80004a0 <initPinParams+0xd8>)
 80003dc:	cb11      	ldmia	r3!, {r0, r4}
 80003de:	c111      	stmia	r1!, {r0, r4}
 80003e0:	4930      	ldr	r1, [pc, #192]	; (80004a4 <initPinParams+0xdc>)
 80003e2:	cb11      	ldmia	r3!, {r0, r4}
 80003e4:	c111      	stmia	r1!, {r0, r4}
 80003e6:	4930      	ldr	r1, [pc, #192]	; (80004a8 <initPinParams+0xe0>)
 80003e8:	cb11      	ldmia	r3!, {r0, r4}
 80003ea:	c111      	stmia	r1!, {r0, r4}
 80003ec:	492f      	ldr	r1, [pc, #188]	; (80004ac <initPinParams+0xe4>)
 80003ee:	cb11      	ldmia	r3!, {r0, r4}
 80003f0:	c111      	stmia	r1!, {r0, r4}
 80003f2:	492f      	ldr	r1, [pc, #188]	; (80004b0 <initPinParams+0xe8>)
 80003f4:	cb11      	ldmia	r3!, {r0, r4}
 80003f6:	c111      	stmia	r1!, {r0, r4}
 80003f8:	492e      	ldr	r1, [pc, #184]	; (80004b4 <initPinParams+0xec>)
 80003fa:	cb11      	ldmia	r3!, {r0, r4}
 80003fc:	c111      	stmia	r1!, {r0, r4}
 80003fe:	492e      	ldr	r1, [pc, #184]	; (80004b8 <initPinParams+0xf0>)
 8000400:	7809      	ldrb	r1, [r1, #0]
 8000402:	2900      	cmp	r1, #0
 8000404:	d10c      	bne.n	8000420 <initPinParams+0x58>
 8000406:	4a2d      	ldr	r2, [pc, #180]	; (80004bc <initPinParams+0xf4>)
 8000408:	cb03      	ldmia	r3!, {r0, r1}
 800040a:	c203      	stmia	r2!, {r0, r1}
 800040c:	4a2c      	ldr	r2, [pc, #176]	; (80004c0 <initPinParams+0xf8>)
 800040e:	cb03      	ldmia	r3!, {r0, r1}
 8000410:	c203      	stmia	r2!, {r0, r1}
 8000412:	4a2c      	ldr	r2, [pc, #176]	; (80004c4 <initPinParams+0xfc>)
 8000414:	cb03      	ldmia	r3!, {r0, r1}
 8000416:	c203      	stmia	r2!, {r0, r1}
 8000418:	4a2b      	ldr	r2, [pc, #172]	; (80004c8 <initPinParams+0x100>)
 800041a:	cb03      	ldmia	r3!, {r0, r1}
 800041c:	c203      	stmia	r2!, {r0, r1}
 800041e:	bd30      	pop	{r4, r5, pc}
 8000420:	0011      	movs	r1, r2
 8000422:	482a      	ldr	r0, [pc, #168]	; (80004cc <initPinParams+0x104>)
 8000424:	3160      	adds	r1, #96	; 0x60
 8000426:	c930      	ldmia	r1!, {r4, r5}
 8000428:	c030      	stmia	r0!, {r4, r5}
 800042a:	0011      	movs	r1, r2
 800042c:	4828      	ldr	r0, [pc, #160]	; (80004d0 <initPinParams+0x108>)
 800042e:	3168      	adds	r1, #104	; 0x68
 8000430:	c930      	ldmia	r1!, {r4, r5}
 8000432:	c030      	stmia	r0!, {r4, r5}
 8000434:	0011      	movs	r1, r2
 8000436:	4827      	ldr	r0, [pc, #156]	; (80004d4 <initPinParams+0x10c>)
 8000438:	3170      	adds	r1, #112	; 0x70
 800043a:	c930      	ldmia	r1!, {r4, r5}
 800043c:	c030      	stmia	r0!, {r4, r5}
 800043e:	4926      	ldr	r1, [pc, #152]	; (80004d8 <initPinParams+0x110>)
 8000440:	3278      	adds	r2, #120	; 0x78
 8000442:	ca11      	ldmia	r2!, {r0, r4}
 8000444:	c111      	stmia	r1!, {r0, r4}
 8000446:	4925      	ldr	r1, [pc, #148]	; (80004dc <initPinParams+0x114>)
 8000448:	4a25      	ldr	r2, [pc, #148]	; (80004e0 <initPinParams+0x118>)
 800044a:	ca11      	ldmia	r2!, {r0, r4}
 800044c:	c111      	stmia	r1!, {r0, r4}
 800044e:	4925      	ldr	r1, [pc, #148]	; (80004e4 <initPinParams+0x11c>)
 8000450:	ca11      	ldmia	r2!, {r0, r4}
 8000452:	c111      	stmia	r1!, {r0, r4}
 8000454:	4924      	ldr	r1, [pc, #144]	; (80004e8 <initPinParams+0x120>)
 8000456:	ca11      	ldmia	r2!, {r0, r4}
 8000458:	c111      	stmia	r1!, {r0, r4}
 800045a:	4924      	ldr	r1, [pc, #144]	; (80004ec <initPinParams+0x124>)
 800045c:	ca11      	ldmia	r2!, {r0, r4}
 800045e:	c111      	stmia	r1!, {r0, r4}
 8000460:	4923      	ldr	r1, [pc, #140]	; (80004f0 <initPinParams+0x128>)
 8000462:	ca11      	ldmia	r2!, {r0, r4}
 8000464:	c111      	stmia	r1!, {r0, r4}
 8000466:	4923      	ldr	r1, [pc, #140]	; (80004f4 <initPinParams+0x12c>)
 8000468:	ca11      	ldmia	r2!, {r0, r4}
 800046a:	c111      	stmia	r1!, {r0, r4}
 800046c:	4922      	ldr	r1, [pc, #136]	; (80004f8 <initPinParams+0x130>)
 800046e:	ca11      	ldmia	r2!, {r0, r4}
 8000470:	c111      	stmia	r1!, {r0, r4}
 8000472:	4922      	ldr	r1, [pc, #136]	; (80004fc <initPinParams+0x134>)
 8000474:	ca11      	ldmia	r2!, {r0, r4}
 8000476:	c111      	stmia	r1!, {r0, r4}
 8000478:	4921      	ldr	r1, [pc, #132]	; (8000500 <initPinParams+0x138>)
 800047a:	ca11      	ldmia	r2!, {r0, r4}
 800047c:	c111      	stmia	r1!, {r0, r4}
 800047e:	4921      	ldr	r1, [pc, #132]	; (8000504 <initPinParams+0x13c>)
 8000480:	ca11      	ldmia	r2!, {r0, r4}
 8000482:	c111      	stmia	r1!, {r0, r4}
 8000484:	4920      	ldr	r1, [pc, #128]	; (8000508 <initPinParams+0x140>)
 8000486:	ca11      	ldmia	r2!, {r0, r4}
 8000488:	c111      	stmia	r1!, {r0, r4}
 800048a:	4920      	ldr	r1, [pc, #128]	; (800050c <initPinParams+0x144>)
 800048c:	ca11      	ldmia	r2!, {r0, r4}
 800048e:	c111      	stmia	r1!, {r0, r4}
 8000490:	4a1f      	ldr	r2, [pc, #124]	; (8000510 <initPinParams+0x148>)
 8000492:	e7c2      	b.n	800041a <initPinParams+0x52>
 8000494:	080017ec 	.word	0x080017ec
 8000498:	200000ac 	.word	0x200000ac
 800049c:	20000154 	.word	0x20000154
 80004a0:	2000015c 	.word	0x2000015c
 80004a4:	20000164 	.word	0x20000164
 80004a8:	2000016c 	.word	0x2000016c
 80004ac:	20000174 	.word	0x20000174
 80004b0:	2000017c 	.word	0x2000017c
 80004b4:	20000184 	.word	0x20000184
 80004b8:	2000018c 	.word	0x2000018c
 80004bc:	2000014c 	.word	0x2000014c
 80004c0:	20000144 	.word	0x20000144
 80004c4:	2000011c 	.word	0x2000011c
 80004c8:	2000010c 	.word	0x2000010c
 80004cc:	20000124 	.word	0x20000124
 80004d0:	2000012c 	.word	0x2000012c
 80004d4:	20000134 	.word	0x20000134
 80004d8:	2000013c 	.word	0x2000013c
 80004dc:	200000ec 	.word	0x200000ec
 80004e0:	0800186c 	.word	0x0800186c
 80004e4:	200000f4 	.word	0x200000f4
 80004e8:	200000fc 	.word	0x200000fc
 80004ec:	20000104 	.word	0x20000104
 80004f0:	200000a4 	.word	0x200000a4
 80004f4:	200000b4 	.word	0x200000b4
 80004f8:	200000bc 	.word	0x200000bc
 80004fc:	200000c4 	.word	0x200000c4
 8000500:	200000cc 	.word	0x200000cc
 8000504:	200000d4 	.word	0x200000d4
 8000508:	200000dc 	.word	0x200000dc
 800050c:	200000e4 	.word	0x200000e4
 8000510:	20000114 	.word	0x20000114

08000514 <updateDisplayMode>:
 8000514:	b510      	push	{r4, lr}
 8000516:	4b04      	ldr	r3, [pc, #16]	; (8000528 <updateDisplayMode+0x14>)
 8000518:	8899      	ldrh	r1, [r3, #4]
 800051a:	6818      	ldr	r0, [r3, #0]
 800051c:	f000 fc94 	bl	8000e48 <HAL_GPIO_ReadPin>
 8000520:	4b02      	ldr	r3, [pc, #8]	; (800052c <updateDisplayMode+0x18>)
 8000522:	7018      	strb	r0, [r3, #0]
 8000524:	bd10      	pop	{r4, pc}
 8000526:	46c0      	nop			; (mov r8, r8)
 8000528:	200000a4 	.word	0x200000a4
 800052c:	2000018d 	.word	0x2000018d

08000530 <updateDisplay>:
 8000530:	b5f7      	push	{r0, r1, r2, r4, r5, r6, r7, lr}
 8000532:	4b58      	ldr	r3, [pc, #352]	; (8000694 <updateDisplay+0x164>)
 8000534:	4e58      	ldr	r6, [pc, #352]	; (8000698 <updateDisplay+0x168>)
 8000536:	781b      	ldrb	r3, [r3, #0]
 8000538:	4c58      	ldr	r4, [pc, #352]	; (800069c <updateDisplay+0x16c>)
 800053a:	2b00      	cmp	r3, #0
 800053c:	d005      	beq.n	800054a <updateDisplay+0x1a>
 800053e:	2b01      	cmp	r3, #1
 8000540:	d13f      	bne.n	80005c2 <updateDisplay+0x92>
 8000542:	4b57      	ldr	r3, [pc, #348]	; (80006a0 <updateDisplay+0x170>)
 8000544:	781b      	ldrb	r3, [r3, #0]
 8000546:	2b01      	cmp	r3, #1
 8000548:	d13b      	bne.n	80005c2 <updateDisplay+0x92>
 800054a:	7833      	ldrb	r3, [r6, #0]
 800054c:	6820      	ldr	r0, [r4, #0]
 800054e:	425a      	negs	r2, r3
 8000550:	4153      	adcs	r3, r2
 8000552:	b2db      	uxtb	r3, r3
 8000554:	9301      	str	r3, [sp, #4]
 8000556:	001a      	movs	r2, r3
 8000558:	88a1      	ldrh	r1, [r4, #4]
 800055a:	f000 fc7b 	bl	8000e54 <HAL_GPIO_WritePin>
 800055e:	4d51      	ldr	r5, [pc, #324]	; (80006a4 <updateDisplay+0x174>)
 8000560:	002f      	movs	r7, r5
 8000562:	371c      	adds	r7, #28
 8000564:	cd08      	ldmia	r5!, {r3}
 8000566:	2200      	movs	r2, #0
 8000568:	8899      	ldrh	r1, [r3, #4]
 800056a:	6818      	ldr	r0, [r3, #0]
 800056c:	f000 fc72 	bl	8000e54 <HAL_GPIO_WritePin>
 8000570:	42af      	cmp	r7, r5
 8000572:	d1f7      	bne.n	8000564 <updateDisplay+0x34>
 8000574:	7832      	ldrb	r2, [r6, #0]
 8000576:	4b4c      	ldr	r3, [pc, #304]	; (80006a8 <updateDisplay+0x178>)
 8000578:	2a00      	cmp	r2, #0
 800057a:	d000      	beq.n	800057e <updateDisplay+0x4e>
 800057c:	4b4b      	ldr	r3, [pc, #300]	; (80006ac <updateDisplay+0x17c>)
 800057e:	88a1      	ldrh	r1, [r4, #4]
 8000580:	6820      	ldr	r0, [r4, #0]
 8000582:	781d      	ldrb	r5, [r3, #0]
 8000584:	2400      	movs	r4, #0
 8000586:	f000 fc65 	bl	8000e54 <HAL_GPIO_WritePin>
 800058a:	2740      	movs	r7, #64	; 0x40
 800058c:	4a45      	ldr	r2, [pc, #276]	; (80006a4 <updateDisplay+0x174>)
 800058e:	00a3      	lsls	r3, r4, #2
 8000590:	58d3      	ldr	r3, [r2, r3]
 8000592:	4a47      	ldr	r2, [pc, #284]	; (80006b0 <updateDisplay+0x180>)
 8000594:	8899      	ldrh	r1, [r3, #4]
 8000596:	5d52      	ldrb	r2, [r2, r5]
 8000598:	6818      	ldr	r0, [r3, #0]
 800059a:	40a2      	lsls	r2, r4
 800059c:	3401      	adds	r4, #1
 800059e:	403a      	ands	r2, r7
 80005a0:	f000 fc58 	bl	8000e54 <HAL_GPIO_WritePin>
 80005a4:	2c07      	cmp	r4, #7
 80005a6:	d1f1      	bne.n	800058c <updateDisplay+0x5c>
 80005a8:	4b3a      	ldr	r3, [pc, #232]	; (8000694 <updateDisplay+0x164>)
 80005aa:	781b      	ldrb	r3, [r3, #0]
 80005ac:	2b01      	cmp	r3, #1
 80005ae:	d105      	bne.n	80005bc <updateDisplay+0x8c>
 80005b0:	4b40      	ldr	r3, [pc, #256]	; (80006b4 <updateDisplay+0x184>)
 80005b2:	2200      	movs	r2, #0
 80005b4:	8899      	ldrh	r1, [r3, #4]
 80005b6:	6818      	ldr	r0, [r3, #0]
 80005b8:	f000 fc4c 	bl	8000e54 <HAL_GPIO_WritePin>
 80005bc:	9b01      	ldr	r3, [sp, #4]
 80005be:	7033      	strb	r3, [r6, #0]
 80005c0:	bdf7      	pop	{r0, r1, r2, r4, r5, r6, r7, pc}
 80005c2:	2501      	movs	r5, #1
 80005c4:	7035      	strb	r5, [r6, #0]
 80005c6:	002a      	movs	r2, r5
 80005c8:	88a1      	ldrh	r1, [r4, #4]
 80005ca:	6820      	ldr	r0, [r4, #0]
 80005cc:	f000 fc42 	bl	8000e54 <HAL_GPIO_WritePin>
 80005d0:	4b39      	ldr	r3, [pc, #228]	; (80006b8 <updateDisplay+0x188>)
 80005d2:	681c      	ldr	r4, [r3, #0]
 80005d4:	889e      	ldrh	r6, [r3, #4]
 80005d6:	4b39      	ldr	r3, [pc, #228]	; (80006bc <updateDisplay+0x18c>)
 80005d8:	8899      	ldrh	r1, [r3, #4]
 80005da:	6818      	ldr	r0, [r3, #0]
 80005dc:	f000 fc34 	bl	8000e48 <HAL_GPIO_ReadPin>
 80005e0:	0031      	movs	r1, r6
 80005e2:	0002      	movs	r2, r0
 80005e4:	0020      	movs	r0, r4
 80005e6:	f000 fc35 	bl	8000e54 <HAL_GPIO_WritePin>
 80005ea:	4b35      	ldr	r3, [pc, #212]	; (80006c0 <updateDisplay+0x190>)
 80005ec:	681c      	ldr	r4, [r3, #0]
 80005ee:	889e      	ldrh	r6, [r3, #4]
 80005f0:	4b34      	ldr	r3, [pc, #208]	; (80006c4 <updateDisplay+0x194>)
 80005f2:	8899      	ldrh	r1, [r3, #4]
 80005f4:	6818      	ldr	r0, [r3, #0]
 80005f6:	f000 fc27 	bl	8000e48 <HAL_GPIO_ReadPin>
 80005fa:	0031      	movs	r1, r6
 80005fc:	0002      	movs	r2, r0
 80005fe:	0020      	movs	r0, r4
 8000600:	f000 fc28 	bl	8000e54 <HAL_GPIO_WritePin>
 8000604:	4b30      	ldr	r3, [pc, #192]	; (80006c8 <updateDisplay+0x198>)
 8000606:	681c      	ldr	r4, [r3, #0]
 8000608:	889e      	ldrh	r6, [r3, #4]
 800060a:	4b30      	ldr	r3, [pc, #192]	; (80006cc <updateDisplay+0x19c>)
 800060c:	8899      	ldrh	r1, [r3, #4]
 800060e:	6818      	ldr	r0, [r3, #0]
 8000610:	f000 fc1a 	bl	8000e48 <HAL_GPIO_ReadPin>
 8000614:	0031      	movs	r1, r6
 8000616:	0002      	movs	r2, r0
 8000618:	0020      	movs	r0, r4
 800061a:	f000 fc1b 	bl	8000e54 <HAL_GPIO_WritePin>
 800061e:	4b2c      	ldr	r3, [pc, #176]	; (80006d0 <updateDisplay+0x1a0>)
 8000620:	681c      	ldr	r4, [r3, #0]
 8000622:	889e      	ldrh	r6, [r3, #4]
 8000624:	4b2b      	ldr	r3, [pc, #172]	; (80006d4 <updateDisplay+0x1a4>)
 8000626:	8899      	ldrh	r1, [r3, #4]
 8000628:	6818      	ldr	r0, [r3, #0]
 800062a:	f000 fc0d 	bl	8000e48 <HAL_GPIO_ReadPin>
 800062e:	0031      	movs	r1, r6
 8000630:	0002      	movs	r2, r0
 8000632:	0020      	movs	r0, r4
 8000634:	f000 fc0e 	bl	8000e54 <HAL_GPIO_WritePin>
 8000638:	4b27      	ldr	r3, [pc, #156]	; (80006d8 <updateDisplay+0x1a8>)
 800063a:	681c      	ldr	r4, [r3, #0]
 800063c:	889e      	ldrh	r6, [r3, #4]
 800063e:	4b27      	ldr	r3, [pc, #156]	; (80006dc <updateDisplay+0x1ac>)
 8000640:	8899      	ldrh	r1, [r3, #4]
 8000642:	6818      	ldr	r0, [r3, #0]
 8000644:	f000 fc00 	bl	8000e48 <HAL_GPIO_ReadPin>
 8000648:	0031      	movs	r1, r6
 800064a:	0002      	movs	r2, r0
 800064c:	0020      	movs	r0, r4
 800064e:	f000 fc01 	bl	8000e54 <HAL_GPIO_WritePin>
 8000652:	4b23      	ldr	r3, [pc, #140]	; (80006e0 <updateDisplay+0x1b0>)
 8000654:	681c      	ldr	r4, [r3, #0]
 8000656:	889e      	ldrh	r6, [r3, #4]
 8000658:	4b22      	ldr	r3, [pc, #136]	; (80006e4 <updateDisplay+0x1b4>)
 800065a:	8899      	ldrh	r1, [r3, #4]
 800065c:	6818      	ldr	r0, [r3, #0]
 800065e:	f000 fbf3 	bl	8000e48 <HAL_GPIO_ReadPin>
 8000662:	0031      	movs	r1, r6
 8000664:	0002      	movs	r2, r0
 8000666:	0020      	movs	r0, r4
 8000668:	f000 fbf4 	bl	8000e54 <HAL_GPIO_WritePin>
 800066c:	4b1e      	ldr	r3, [pc, #120]	; (80006e8 <updateDisplay+0x1b8>)
 800066e:	681c      	ldr	r4, [r3, #0]
 8000670:	889e      	ldrh	r6, [r3, #4]
 8000672:	4b1e      	ldr	r3, [pc, #120]	; (80006ec <updateDisplay+0x1bc>)
 8000674:	8899      	ldrh	r1, [r3, #4]
 8000676:	6818      	ldr	r0, [r3, #0]
 8000678:	f000 fbe6 	bl	8000e48 <HAL_GPIO_ReadPin>
 800067c:	0031      	movs	r1, r6
 800067e:	0002      	movs	r2, r0
 8000680:	0020      	movs	r0, r4
 8000682:	f000 fbe7 	bl	8000e54 <HAL_GPIO_WritePin>
 8000686:	4b0b      	ldr	r3, [pc, #44]	; (80006b4 <updateDisplay+0x184>)
 8000688:	002a      	movs	r2, r5
 800068a:	8899      	ldrh	r1, [r3, #4]
 800068c:	6818      	ldr	r0, [r3, #0]
 800068e:	f000 fbe1 	bl	8000e54 <HAL_GPIO_WritePin>
 8000692:	e795      	b.n	80005c0 <updateDisplay+0x90>
 8000694:	2000018c 	.word	0x2000018c
 8000698:	20000038 	.word	0x20000038
 800069c:	200000ac 	.word	0x200000ac
 80006a0:	2000018d 	.word	0x2000018d
 80006a4:	2000000c 	.word	0x2000000c
 80006a8:	2000018f 	.word	0x2000018f
 80006ac:	2000018e 	.word	0x2000018e
 80006b0:	20000028 	.word	0x20000028
 80006b4:	20000114 	.word	0x20000114
 80006b8:	20000154 	.word	0x20000154
 80006bc:	200000b4 	.word	0x200000b4
 80006c0:	2000015c 	.word	0x2000015c
 80006c4:	200000bc 	.word	0x200000bc
 80006c8:	20000164 	.word	0x20000164
 80006cc:	200000c4 	.word	0x200000c4
 80006d0:	2000016c 	.word	0x2000016c
 80006d4:	200000cc 	.word	0x200000cc
 80006d8:	20000174 	.word	0x20000174
 80006dc:	200000d4 	.word	0x200000d4
 80006e0:	2000017c 	.word	0x2000017c
 80006e4:	200000dc 	.word	0x200000dc
 80006e8:	20000184 	.word	0x20000184
 80006ec:	200000e4 	.word	0x200000e4

080006f0 <updateButton>:
 80006f0:	b510      	push	{r4, lr}
 80006f2:	6803      	ldr	r3, [r0, #0]
 80006f4:	0004      	movs	r4, r0
 80006f6:	8899      	ldrh	r1, [r3, #4]
 80006f8:	6818      	ldr	r0, [r3, #0]
 80006fa:	f000 fba5 	bl	8000e48 <HAL_GPIO_ReadPin>
 80006fe:	2800      	cmp	r0, #0
 8000700:	d111      	bne.n	8000726 <updateButton+0x36>
 8000702:	7923      	ldrb	r3, [r4, #4]
 8000704:	2b00      	cmp	r3, #0
 8000706:	d108      	bne.n	800071a <updateButton+0x2a>
 8000708:	f000 fa9a 	bl	8000c40 <HAL_GetTick>
 800070c:	68a3      	ldr	r3, [r4, #8]
 800070e:	1ac0      	subs	r0, r0, r3
 8000710:	238a      	movs	r3, #138	; 0x8a
 8000712:	005b      	lsls	r3, r3, #1
 8000714:	4298      	cmp	r0, r3
 8000716:	d20a      	bcs.n	800072e <updateButton+0x3e>
 8000718:	bd10      	pop	{r4, pc}
 800071a:	2301      	movs	r3, #1
 800071c:	7120      	strb	r0, [r4, #4]
 800071e:	7323      	strb	r3, [r4, #12]
 8000720:	f000 fa8e 	bl	8000c40 <HAL_GetTick>
 8000724:	60a0      	str	r0, [r4, #8]
 8000726:	7923      	ldrb	r3, [r4, #4]
 8000728:	2b00      	cmp	r3, #0
 800072a:	d1f5      	bne.n	8000718 <updateButton+0x28>
 800072c:	e7ec      	b.n	8000708 <updateButton+0x18>
 800072e:	2301      	movs	r3, #1
 8000730:	7123      	strb	r3, [r4, #4]
 8000732:	e7f1      	b.n	8000718 <updateButton+0x28>

08000734 <proccesButton>:
 8000734:	4b22      	ldr	r3, [pc, #136]	; (80007c0 <proccesButton+0x8c>)
 8000736:	6802      	ldr	r2, [r0, #0]
 8000738:	6819      	ldr	r1, [r3, #0]
 800073a:	428a      	cmp	r2, r1
 800073c:	d10b      	bne.n	8000756 <proccesButton+0x22>
 800073e:	8882      	ldrh	r2, [r0, #4]
 8000740:	889b      	ldrh	r3, [r3, #4]
 8000742:	429a      	cmp	r2, r3
 8000744:	d107      	bne.n	8000756 <proccesButton+0x22>
 8000746:	4a1f      	ldr	r2, [pc, #124]	; (80007c4 <proccesButton+0x90>)
 8000748:	2100      	movs	r1, #0
 800074a:	7813      	ldrb	r3, [r2, #0]
 800074c:	2b0f      	cmp	r3, #15
 800074e:	d001      	beq.n	8000754 <proccesButton+0x20>
 8000750:	3301      	adds	r3, #1
 8000752:	b2d9      	uxtb	r1, r3
 8000754:	7011      	strb	r1, [r2, #0]
 8000756:	4b1c      	ldr	r3, [pc, #112]	; (80007c8 <proccesButton+0x94>)
 8000758:	6802      	ldr	r2, [r0, #0]
 800075a:	6819      	ldr	r1, [r3, #0]
 800075c:	428a      	cmp	r2, r1
 800075e:	d10b      	bne.n	8000778 <proccesButton+0x44>
 8000760:	8882      	ldrh	r2, [r0, #4]
 8000762:	889b      	ldrh	r3, [r3, #4]
 8000764:	429a      	cmp	r2, r3
 8000766:	d107      	bne.n	8000778 <proccesButton+0x44>
 8000768:	4a16      	ldr	r2, [pc, #88]	; (80007c4 <proccesButton+0x90>)
 800076a:	210f      	movs	r1, #15
 800076c:	7813      	ldrb	r3, [r2, #0]
 800076e:	2b00      	cmp	r3, #0
 8000770:	d001      	beq.n	8000776 <proccesButton+0x42>
 8000772:	3b01      	subs	r3, #1
 8000774:	b2d9      	uxtb	r1, r3
 8000776:	7011      	strb	r1, [r2, #0]
 8000778:	4b14      	ldr	r3, [pc, #80]	; (80007cc <proccesButton+0x98>)
 800077a:	6802      	ldr	r2, [r0, #0]
 800077c:	6819      	ldr	r1, [r3, #0]
 800077e:	428a      	cmp	r2, r1
 8000780:	d10b      	bne.n	800079a <proccesButton+0x66>
 8000782:	8882      	ldrh	r2, [r0, #4]
 8000784:	889b      	ldrh	r3, [r3, #4]
 8000786:	429a      	cmp	r2, r3
 8000788:	d107      	bne.n	800079a <proccesButton+0x66>
 800078a:	4a11      	ldr	r2, [pc, #68]	; (80007d0 <proccesButton+0x9c>)
 800078c:	2100      	movs	r1, #0
 800078e:	7813      	ldrb	r3, [r2, #0]
 8000790:	2b0f      	cmp	r3, #15
 8000792:	d001      	beq.n	8000798 <proccesButton+0x64>
 8000794:	3301      	adds	r3, #1
 8000796:	b2d9      	uxtb	r1, r3
 8000798:	7011      	strb	r1, [r2, #0]
 800079a:	4b0e      	ldr	r3, [pc, #56]	; (80007d4 <proccesButton+0xa0>)
 800079c:	6802      	ldr	r2, [r0, #0]
 800079e:	6819      	ldr	r1, [r3, #0]
 80007a0:	428a      	cmp	r2, r1
 80007a2:	d10b      	bne.n	80007bc <proccesButton+0x88>
 80007a4:	8882      	ldrh	r2, [r0, #4]
 80007a6:	889b      	ldrh	r3, [r3, #4]
 80007a8:	429a      	cmp	r2, r3
 80007aa:	d107      	bne.n	80007bc <proccesButton+0x88>
 80007ac:	4a08      	ldr	r2, [pc, #32]	; (80007d0 <proccesButton+0x9c>)
 80007ae:	210f      	movs	r1, #15
 80007b0:	7813      	ldrb	r3, [r2, #0]
 80007b2:	2b00      	cmp	r3, #0
 80007b4:	d001      	beq.n	80007ba <proccesButton+0x86>
 80007b6:	3b01      	subs	r3, #1
 80007b8:	b2d9      	uxtb	r1, r3
 80007ba:	7011      	strb	r1, [r2, #0]
 80007bc:	4770      	bx	lr
 80007be:	46c0      	nop			; (mov r8, r8)
 80007c0:	2000014c 	.word	0x2000014c
 80007c4:	2000018f 	.word	0x2000018f
 80007c8:	20000144 	.word	0x20000144
 80007cc:	2000011c 	.word	0x2000011c
 80007d0:	2000018e 	.word	0x2000018e
 80007d4:	2000010c 	.word	0x2000010c

080007d8 <writeBinaryRepresention>:
 80007d8:	b570      	push	{r4, r5, r6, lr}
 80007da:	2401      	movs	r4, #1
 80007dc:	0022      	movs	r2, r4
 80007de:	4d24      	ldr	r5, [pc, #144]	; (8000870 <writeBinaryRepresention+0x98>)
 80007e0:	782b      	ldrb	r3, [r5, #0]
 80007e2:	439a      	bics	r2, r3
 80007e4:	4b23      	ldr	r3, [pc, #140]	; (8000874 <writeBinaryRepresention+0x9c>)
 80007e6:	8899      	ldrh	r1, [r3, #4]
 80007e8:	6818      	ldr	r0, [r3, #0]
 80007ea:	f000 fb33 	bl	8000e54 <HAL_GPIO_WritePin>
 80007ee:	782b      	ldrb	r3, [r5, #0]
 80007f0:	0022      	movs	r2, r4
 80007f2:	40e3      	lsrs	r3, r4
 80007f4:	439a      	bics	r2, r3
 80007f6:	4b20      	ldr	r3, [pc, #128]	; (8000878 <writeBinaryRepresention+0xa0>)
 80007f8:	8899      	ldrh	r1, [r3, #4]
 80007fa:	6818      	ldr	r0, [r3, #0]
 80007fc:	f000 fb2a 	bl	8000e54 <HAL_GPIO_WritePin>
 8000800:	0022      	movs	r2, r4
 8000802:	782b      	ldrb	r3, [r5, #0]
 8000804:	089b      	lsrs	r3, r3, #2
 8000806:	439a      	bics	r2, r3
 8000808:	4b1c      	ldr	r3, [pc, #112]	; (800087c <writeBinaryRepresention+0xa4>)
 800080a:	8899      	ldrh	r1, [r3, #4]
 800080c:	6818      	ldr	r0, [r3, #0]
 800080e:	f000 fb21 	bl	8000e54 <HAL_GPIO_WritePin>
 8000812:	0022      	movs	r2, r4
 8000814:	782b      	ldrb	r3, [r5, #0]
 8000816:	08db      	lsrs	r3, r3, #3
 8000818:	439a      	bics	r2, r3
 800081a:	4b19      	ldr	r3, [pc, #100]	; (8000880 <writeBinaryRepresention+0xa8>)
 800081c:	8899      	ldrh	r1, [r3, #4]
 800081e:	6818      	ldr	r0, [r3, #0]
 8000820:	f000 fb18 	bl	8000e54 <HAL_GPIO_WritePin>
 8000824:	0022      	movs	r2, r4
 8000826:	4d17      	ldr	r5, [pc, #92]	; (8000884 <writeBinaryRepresention+0xac>)
 8000828:	782b      	ldrb	r3, [r5, #0]
 800082a:	439a      	bics	r2, r3
 800082c:	4b16      	ldr	r3, [pc, #88]	; (8000888 <writeBinaryRepresention+0xb0>)
 800082e:	8899      	ldrh	r1, [r3, #4]
 8000830:	6818      	ldr	r0, [r3, #0]
 8000832:	f000 fb0f 	bl	8000e54 <HAL_GPIO_WritePin>
 8000836:	782b      	ldrb	r3, [r5, #0]
 8000838:	0022      	movs	r2, r4
 800083a:	40e3      	lsrs	r3, r4
 800083c:	439a      	bics	r2, r3
 800083e:	4b13      	ldr	r3, [pc, #76]	; (800088c <writeBinaryRepresention+0xb4>)
 8000840:	8899      	ldrh	r1, [r3, #4]
 8000842:	6818      	ldr	r0, [r3, #0]
 8000844:	f000 fb06 	bl	8000e54 <HAL_GPIO_WritePin>
 8000848:	0022      	movs	r2, r4
 800084a:	782b      	ldrb	r3, [r5, #0]
 800084c:	089b      	lsrs	r3, r3, #2
 800084e:	439a      	bics	r2, r3
 8000850:	4b0f      	ldr	r3, [pc, #60]	; (8000890 <writeBinaryRepresention+0xb8>)
 8000852:	8899      	ldrh	r1, [r3, #4]
 8000854:	6818      	ldr	r0, [r3, #0]
 8000856:	f000 fafd 	bl	8000e54 <HAL_GPIO_WritePin>
 800085a:	0022      	movs	r2, r4
 800085c:	782b      	ldrb	r3, [r5, #0]
 800085e:	08db      	lsrs	r3, r3, #3
 8000860:	439a      	bics	r2, r3
 8000862:	4b0c      	ldr	r3, [pc, #48]	; (8000894 <writeBinaryRepresention+0xbc>)
 8000864:	8899      	ldrh	r1, [r3, #4]
 8000866:	6818      	ldr	r0, [r3, #0]
 8000868:	f000 faf4 	bl	8000e54 <HAL_GPIO_WritePin>
 800086c:	bd70      	pop	{r4, r5, r6, pc}
 800086e:	46c0      	nop			; (mov r8, r8)
 8000870:	2000018f 	.word	0x2000018f
 8000874:	20000124 	.word	0x20000124
 8000878:	2000012c 	.word	0x2000012c
 800087c:	20000134 	.word	0x20000134
 8000880:	2000013c 	.word	0x2000013c
 8000884:	2000018e 	.word	0x2000018e
 8000888:	200000ec 	.word	0x200000ec
 800088c:	200000f4 	.word	0x200000f4
 8000890:	200000fc 	.word	0x200000fc
 8000894:	20000104 	.word	0x20000104

08000898 <pollAndProcessButtons>:
 8000898:	b5f8      	push	{r3, r4, r5, r6, r7, lr}
 800089a:	2400      	movs	r4, #0
 800089c:	4d12      	ldr	r5, [pc, #72]	; (80008e8 <pollAndProcessButtons+0x50>)
 800089e:	682b      	ldr	r3, [r5, #0]
 80008a0:	429c      	cmp	r4, r3
 80008a2:	d30a      	bcc.n	80008ba <pollAndProcessButtons+0x22>
 80008a4:	2400      	movs	r4, #0
 80008a6:	2701      	movs	r7, #1
 80008a8:	0023      	movs	r3, r4
 80008aa:	682a      	ldr	r2, [r5, #0]
 80008ac:	4294      	cmp	r4, r2
 80008ae:	d30c      	bcc.n	80008ca <pollAndProcessButtons+0x32>
 80008b0:	2b00      	cmp	r3, #0
 80008b2:	d001      	beq.n	80008b8 <pollAndProcessButtons+0x20>
 80008b4:	f7ff ff90 	bl	80007d8 <writeBinaryRepresention>
 80008b8:	bdf8      	pop	{r3, r4, r5, r6, r7, pc}
 80008ba:	480c      	ldr	r0, [pc, #48]	; (80008ec <pollAndProcessButtons+0x54>)
 80008bc:	0123      	lsls	r3, r4, #4
 80008be:	18c0      	adds	r0, r0, r3
 80008c0:	3401      	adds	r4, #1
 80008c2:	f7ff ff15 	bl	80006f0 <updateButton>
 80008c6:	b2e4      	uxtb	r4, r4
 80008c8:	e7e8      	b.n	800089c <pollAndProcessButtons+0x4>
 80008ca:	4a08      	ldr	r2, [pc, #32]	; (80008ec <pollAndProcessButtons+0x54>)
 80008cc:	0121      	lsls	r1, r4, #4
 80008ce:	1856      	adds	r6, r2, r1
 80008d0:	7b30      	ldrb	r0, [r6, #12]
 80008d2:	2800      	cmp	r0, #0
 80008d4:	d005      	beq.n	80008e2 <pollAndProcessButtons+0x4a>
 80008d6:	5888      	ldr	r0, [r1, r2]
 80008d8:	f7ff ff2c 	bl	8000734 <proccesButton>
 80008dc:	2300      	movs	r3, #0
 80008de:	7333      	strb	r3, [r6, #12]
 80008e0:	003b      	movs	r3, r7
 80008e2:	3401      	adds	r4, #1
 80008e4:	b2e4      	uxtb	r4, r4
 80008e6:	e7e0      	b.n	80008aa <pollAndProcessButtons+0x12>
 80008e8:	20000008 	.word	0x20000008
 80008ec:	2000003c 	.word	0x2000003c

080008f0 <getNumberFromInvertedBits>:
 80008f0:	0092      	lsls	r2, r2, #2
 80008f2:	4302      	orrs	r2, r0
 80008f4:	200f      	movs	r0, #15
 80008f6:	00db      	lsls	r3, r3, #3
 80008f8:	431a      	orrs	r2, r3
 80008fa:	0049      	lsls	r1, r1, #1
 80008fc:	430a      	orrs	r2, r1
 80008fe:	4390      	bics	r0, r2
 8000900:	4770      	bx	lr
	...

08000904 <readBinaryRepresention>:
 8000904:	b570      	push	{r4, r5, r6, lr}
 8000906:	4b1f      	ldr	r3, [pc, #124]	; (8000984 <readBinaryRepresention+0x80>)
 8000908:	8899      	ldrh	r1, [r3, #4]
 800090a:	6818      	ldr	r0, [r3, #0]
 800090c:	f000 fa9c 	bl	8000e48 <HAL_GPIO_ReadPin>
 8000910:	4b1d      	ldr	r3, [pc, #116]	; (8000988 <readBinaryRepresention+0x84>)
 8000912:	0004      	movs	r4, r0
 8000914:	8899      	ldrh	r1, [r3, #4]
 8000916:	6818      	ldr	r0, [r3, #0]
 8000918:	f000 fa96 	bl	8000e48 <HAL_GPIO_ReadPin>
 800091c:	4b1b      	ldr	r3, [pc, #108]	; (800098c <readBinaryRepresention+0x88>)
 800091e:	0005      	movs	r5, r0
 8000920:	8899      	ldrh	r1, [r3, #4]
 8000922:	6818      	ldr	r0, [r3, #0]
 8000924:	f000 fa90 	bl	8000e48 <HAL_GPIO_ReadPin>
 8000928:	4b19      	ldr	r3, [pc, #100]	; (8000990 <readBinaryRepresention+0x8c>)
 800092a:	0006      	movs	r6, r0
 800092c:	8899      	ldrh	r1, [r3, #4]
 800092e:	6818      	ldr	r0, [r3, #0]
 8000930:	f000 fa8a 	bl	8000e48 <HAL_GPIO_ReadPin>
 8000934:	0032      	movs	r2, r6
 8000936:	0003      	movs	r3, r0
 8000938:	0029      	movs	r1, r5
 800093a:	0020      	movs	r0, r4
 800093c:	f7ff ffd8 	bl	80008f0 <getNumberFromInvertedBits>
 8000940:	4b14      	ldr	r3, [pc, #80]	; (8000994 <readBinaryRepresention+0x90>)
 8000942:	7018      	strb	r0, [r3, #0]
 8000944:	4b14      	ldr	r3, [pc, #80]	; (8000998 <readBinaryRepresention+0x94>)
 8000946:	8899      	ldrh	r1, [r3, #4]
 8000948:	6818      	ldr	r0, [r3, #0]
 800094a:	f000 fa7d 	bl	8000e48 <HAL_GPIO_ReadPin>
 800094e:	4b13      	ldr	r3, [pc, #76]	; (800099c <readBinaryRepresention+0x98>)
 8000950:	0004      	movs	r4, r0
 8000952:	8899      	ldrh	r1, [r3, #4]
 8000954:	6818      	ldr	r0, [r3, #0]
 8000956:	f000 fa77 	bl	8000e48 <HAL_GPIO_ReadPin>
 800095a:	4b11      	ldr	r3, [pc, #68]	; (80009a0 <readBinaryRepresention+0x9c>)
 800095c:	0005      	movs	r5, r0
 800095e:	8899      	ldrh	r1, [r3, #4]
 8000960:	6818      	ldr	r0, [r3, #0]
 8000962:	f000 fa71 	bl	8000e48 <HAL_GPIO_ReadPin>
 8000966:	4b0f      	ldr	r3, [pc, #60]	; (80009a4 <readBinaryRepresention+0xa0>)
 8000968:	0006      	movs	r6, r0
 800096a:	8899      	ldrh	r1, [r3, #4]
 800096c:	6818      	ldr	r0, [r3, #0]
 800096e:	f000 fa6b 	bl	8000e48 <HAL_GPIO_ReadPin>
 8000972:	0032      	movs	r2, r6
 8000974:	0003      	movs	r3, r0
 8000976:	0029      	movs	r1, r5
 8000978:	0020      	movs	r0, r4
 800097a:	f7ff ffb9 	bl	80008f0 <getNumberFromInvertedBits>
 800097e:	4b0a      	ldr	r3, [pc, #40]	; (80009a8 <readBinaryRepresention+0xa4>)
 8000980:	7018      	strb	r0, [r3, #0]
 8000982:	bd70      	pop	{r4, r5, r6, pc}
 8000984:	20000124 	.word	0x20000124
 8000988:	2000012c 	.word	0x2000012c
 800098c:	20000134 	.word	0x20000134
 8000990:	2000013c 	.word	0x2000013c
 8000994:	2000018f 	.word	0x2000018f
 8000998:	200000ec 	.word	0x200000ec
 800099c:	200000f4 	.word	0x200000f4
 80009a0:	200000fc 	.word	0x200000fc
 80009a4:	20000104 	.word	0x20000104
 80009a8:	2000018e 	.word	0x2000018e

080009ac <SystemClock_Config>:
 80009ac:	b500      	push	{lr}
 80009ae:	b093      	sub	sp, #76	; 0x4c
 80009b0:	2234      	movs	r2, #52	; 0x34
 80009b2:	2100      	movs	r1, #0
 80009b4:	a805      	add	r0, sp, #20
 80009b6:	f000 ff05 	bl	80017c4 <memset>
 80009ba:	2100      	movs	r1, #0
 80009bc:	2210      	movs	r2, #16
 80009be:	a801      	add	r0, sp, #4
 80009c0:	f000 ff00 	bl	80017c4 <memset>
 80009c4:	2080      	movs	r0, #128	; 0x80
 80009c6:	0080      	lsls	r0, r0, #2
 80009c8:	f000 fa4a 	bl	8000e60 <HAL_PWREx_ControlVoltageScaling>
 80009cc:	2302      	movs	r3, #2
 80009ce:	9305      	str	r3, [sp, #20]
 80009d0:	33fe      	adds	r3, #254	; 0xfe
 80009d2:	2240      	movs	r2, #64	; 0x40
 80009d4:	9308      	str	r3, [sp, #32]
 80009d6:	2300      	movs	r3, #0
 80009d8:	a805      	add	r0, sp, #20
 80009da:	9309      	str	r3, [sp, #36]	; 0x24
 80009dc:	920a      	str	r2, [sp, #40]	; 0x28
 80009de:	930c      	str	r3, [sp, #48]	; 0x30
 80009e0:	f000 fa6a 	bl	8000eb8 <HAL_RCC_OscConfig>
 80009e4:	1e01      	subs	r1, r0, #0
 80009e6:	d001      	beq.n	80009ec <SystemClock_Config+0x40>
 80009e8:	b672      	cpsid	i
 80009ea:	e7fe      	b.n	80009ea <SystemClock_Config+0x3e>
 80009ec:	2307      	movs	r3, #7
 80009ee:	9002      	str	r0, [sp, #8]
 80009f0:	9003      	str	r0, [sp, #12]
 80009f2:	9004      	str	r0, [sp, #16]
 80009f4:	a801      	add	r0, sp, #4
 80009f6:	9301      	str	r3, [sp, #4]
 80009f8:	f000 fcbe 	bl	8001378 <HAL_RCC_ClockConfig>
 80009fc:	2800      	cmp	r0, #0
 80009fe:	d001      	beq.n	8000a04 <SystemClock_Config+0x58>
 8000a00:	b672      	cpsid	i
 8000a02:	e7fe      	b.n	8000a02 <SystemClock_Config+0x56>
 8000a04:	b013      	add	sp, #76	; 0x4c
 8000a06:	bd00      	pop	{pc}

08000a08 <main>:
 8000a08:	b513      	push	{r0, r1, r4, lr}
 8000a0a:	f000 f8f9 	bl	8000c00 <HAL_Init>
 8000a0e:	f7ff ffcd 	bl	80009ac <SystemClock_Config>
 8000a12:	f000 f86f 	bl	8000af4 <MX_TIM14_Init>
 8000a16:	2001      	movs	r0, #1
 8000a18:	4b1a      	ldr	r3, [pc, #104]	; (8000a84 <main+0x7c>)
 8000a1a:	6b59      	ldr	r1, [r3, #52]	; 0x34
 8000a1c:	4301      	orrs	r1, r0
 8000a1e:	6359      	str	r1, [r3, #52]	; 0x34
 8000a20:	2102      	movs	r1, #2
 8000a22:	6b5a      	ldr	r2, [r3, #52]	; 0x34
 8000a24:	4002      	ands	r2, r0
 8000a26:	9200      	str	r2, [sp, #0]
 8000a28:	9a00      	ldr	r2, [sp, #0]
 8000a2a:	6b5a      	ldr	r2, [r3, #52]	; 0x34
 8000a2c:	430a      	orrs	r2, r1
 8000a2e:	635a      	str	r2, [r3, #52]	; 0x34
 8000a30:	6b5b      	ldr	r3, [r3, #52]	; 0x34
 8000a32:	400b      	ands	r3, r1
 8000a34:	9301      	str	r3, [sp, #4]
 8000a36:	9b01      	ldr	r3, [sp, #4]
 8000a38:	f7ff fbee 	bl	8000218 <initConfigurationPin>
 8000a3c:	4b12      	ldr	r3, [pc, #72]	; (8000a88 <main+0x80>)
 8000a3e:	8899      	ldrh	r1, [r3, #4]
 8000a40:	6818      	ldr	r0, [r3, #0]
 8000a42:	f000 fa01 	bl	8000e48 <HAL_GPIO_ReadPin>
 8000a46:	4c11      	ldr	r4, [pc, #68]	; (8000a8c <main+0x84>)
 8000a48:	7020      	strb	r0, [r4, #0]
 8000a4a:	f7ff fcbd 	bl	80003c8 <initPinParams>
 8000a4e:	7823      	ldrb	r3, [r4, #0]
 8000a50:	2b00      	cmp	r3, #0
 8000a52:	d10a      	bne.n	8000a6a <main+0x62>
 8000a54:	f7ff fec0 	bl	80007d8 <writeBinaryRepresention>
 8000a58:	480d      	ldr	r0, [pc, #52]	; (8000a90 <main+0x88>)
 8000a5a:	f000 fd3b 	bl	80014d4 <HAL_TIM_Base_Start_IT>
 8000a5e:	7823      	ldrb	r3, [r4, #0]
 8000a60:	2b00      	cmp	r3, #0
 8000a62:	d105      	bne.n	8000a70 <main+0x68>
 8000a64:	f7ff ff18 	bl	8000898 <pollAndProcessButtons>
 8000a68:	e7f9      	b.n	8000a5e <main+0x56>
 8000a6a:	f7ff fbe7 	bl	800023c <initBinToHexMode>
 8000a6e:	e7f3      	b.n	8000a58 <main+0x50>
 8000a70:	f7ff fd50 	bl	8000514 <updateDisplayMode>
 8000a74:	4b07      	ldr	r3, [pc, #28]	; (8000a94 <main+0x8c>)
 8000a76:	781b      	ldrb	r3, [r3, #0]
 8000a78:	2b01      	cmp	r3, #1
 8000a7a:	d1f0      	bne.n	8000a5e <main+0x56>
 8000a7c:	f7ff ff42 	bl	8000904 <readBinaryRepresention>
 8000a80:	e7ed      	b.n	8000a5e <main+0x56>
 8000a82:	46c0      	nop			; (mov r8, r8)
 8000a84:	40021000 	.word	0x40021000
 8000a88:	20000000 	.word	0x20000000
 8000a8c:	2000018c 	.word	0x2000018c
 8000a90:	20000190 	.word	0x20000190
 8000a94:	2000018d 	.word	0x2000018d

08000a98 <Error_Handler>:
 8000a98:	b672      	cpsid	i
 8000a9a:	e7fe      	b.n	8000a9a <Error_Handler+0x2>

08000a9c <HAL_MspInit>:
 8000a9c:	2001      	movs	r0, #1
 8000a9e:	4b0a      	ldr	r3, [pc, #40]	; (8000ac8 <HAL_MspInit+0x2c>)
 8000aa0:	b082      	sub	sp, #8
 8000aa2:	6c19      	ldr	r1, [r3, #64]	; 0x40
 8000aa4:	4301      	orrs	r1, r0
 8000aa6:	6419      	str	r1, [r3, #64]	; 0x40
 8000aa8:	2180      	movs	r1, #128	; 0x80
 8000aaa:	6c1a      	ldr	r2, [r3, #64]	; 0x40
 8000aac:	0549      	lsls	r1, r1, #21
 8000aae:	4002      	ands	r2, r0
 8000ab0:	9200      	str	r2, [sp, #0]
 8000ab2:	9a00      	ldr	r2, [sp, #0]
 8000ab4:	6bda      	ldr	r2, [r3, #60]	; 0x3c
 8000ab6:	430a      	orrs	r2, r1
 8000ab8:	63da      	str	r2, [r3, #60]	; 0x3c
 8000aba:	6bdb      	ldr	r3, [r3, #60]	; 0x3c
 8000abc:	400b      	ands	r3, r1
 8000abe:	9301      	str	r3, [sp, #4]
 8000ac0:	9b01      	ldr	r3, [sp, #4]
 8000ac2:	b002      	add	sp, #8
 8000ac4:	4770      	bx	lr
 8000ac6:	46c0      	nop			; (mov r8, r8)
 8000ac8:	40021000 	.word	0x40021000

08000acc <NMI_Handler>:
 8000acc:	e7fe      	b.n	8000acc <NMI_Handler>

08000ace <HardFault_Handler>:
 8000ace:	e7fe      	b.n	8000ace <HardFault_Handler>

08000ad0 <SVC_Handler>:
 8000ad0:	4770      	bx	lr

08000ad2 <PendSV_Handler>:
 8000ad2:	4770      	bx	lr

08000ad4 <SysTick_Handler>:
 8000ad4:	b510      	push	{r4, lr}
 8000ad6:	f000 f8a7 	bl	8000c28 <HAL_IncTick>
 8000ada:	bd10      	pop	{r4, pc}

08000adc <TIM14_IRQHandler>:
 8000adc:	b510      	push	{r4, lr}
 8000ade:	f7ff fd27 	bl	8000530 <updateDisplay>
 8000ae2:	4802      	ldr	r0, [pc, #8]	; (8000aec <TIM14_IRQHandler+0x10>)
 8000ae4:	f000 fd28 	bl	8001538 <HAL_TIM_IRQHandler>
 8000ae8:	bd10      	pop	{r4, pc}
 8000aea:	46c0      	nop			; (mov r8, r8)
 8000aec:	20000190 	.word	0x20000190

08000af0 <SystemInit>:
 8000af0:	4770      	bx	lr
	...

08000af4 <MX_TIM14_Init>:
 8000af4:	4808      	ldr	r0, [pc, #32]	; (8000b18 <MX_TIM14_Init+0x24>)
 8000af6:	4b09      	ldr	r3, [pc, #36]	; (8000b1c <MX_TIM14_Init+0x28>)
 8000af8:	b510      	push	{r4, lr}
 8000afa:	6003      	str	r3, [r0, #0]
 8000afc:	2300      	movs	r3, #0
 8000afe:	4a08      	ldr	r2, [pc, #32]	; (8000b20 <MX_TIM14_Init+0x2c>)
 8000b00:	6043      	str	r3, [r0, #4]
 8000b02:	6083      	str	r3, [r0, #8]
 8000b04:	60c2      	str	r2, [r0, #12]
 8000b06:	6103      	str	r3, [r0, #16]
 8000b08:	6183      	str	r3, [r0, #24]
 8000b0a:	f000 fe09 	bl	8001720 <HAL_TIM_Base_Init>
 8000b0e:	2800      	cmp	r0, #0
 8000b10:	d001      	beq.n	8000b16 <MX_TIM14_Init+0x22>
 8000b12:	f7ff ffc1 	bl	8000a98 <Error_Handler>
 8000b16:	bd10      	pop	{r4, pc}
 8000b18:	20000190 	.word	0x20000190
 8000b1c:	40002000 	.word	0x40002000
 8000b20:	0000ffff 	.word	0x0000ffff

08000b24 <HAL_TIM_Base_MspInit>:
 8000b24:	b507      	push	{r0, r1, r2, lr}
 8000b26:	4b0b      	ldr	r3, [pc, #44]	; (8000b54 <HAL_TIM_Base_MspInit+0x30>)
 8000b28:	6802      	ldr	r2, [r0, #0]
 8000b2a:	429a      	cmp	r2, r3
 8000b2c:	d111      	bne.n	8000b52 <HAL_TIM_Base_MspInit+0x2e>
 8000b2e:	2080      	movs	r0, #128	; 0x80
 8000b30:	4a09      	ldr	r2, [pc, #36]	; (8000b58 <HAL_TIM_Base_MspInit+0x34>)
 8000b32:	0200      	lsls	r0, r0, #8
 8000b34:	6c11      	ldr	r1, [r2, #64]	; 0x40
 8000b36:	4301      	orrs	r1, r0
 8000b38:	6411      	str	r1, [r2, #64]	; 0x40
 8000b3a:	6c13      	ldr	r3, [r2, #64]	; 0x40
 8000b3c:	2200      	movs	r2, #0
 8000b3e:	4003      	ands	r3, r0
 8000b40:	9301      	str	r3, [sp, #4]
 8000b42:	2013      	movs	r0, #19
 8000b44:	0011      	movs	r1, r2
 8000b46:	9b01      	ldr	r3, [sp, #4]
 8000b48:	f000 f880 	bl	8000c4c <HAL_NVIC_SetPriority>
 8000b4c:	2013      	movs	r0, #19
 8000b4e:	f000 f8a7 	bl	8000ca0 <HAL_NVIC_EnableIRQ>
 8000b52:	bd07      	pop	{r0, r1, r2, pc}
 8000b54:	40002000 	.word	0x40002000
 8000b58:	40021000 	.word	0x40021000

08000b5c <Reset_Handler>:
 8000b5c:	480d      	ldr	r0, [pc, #52]	; (8000b94 <LoopForever+0x2>)
 8000b5e:	4685      	mov	sp, r0
 8000b60:	f7ff ffc6 	bl	8000af0 <SystemInit>
 8000b64:	480c      	ldr	r0, [pc, #48]	; (8000b98 <LoopForever+0x6>)
 8000b66:	490d      	ldr	r1, [pc, #52]	; (8000b9c <LoopForever+0xa>)
 8000b68:	4a0d      	ldr	r2, [pc, #52]	; (8000ba0 <LoopForever+0xe>)
 8000b6a:	2300      	movs	r3, #0
 8000b6c:	e002      	b.n	8000b74 <LoopCopyDataInit>

08000b6e <CopyDataInit>:
 8000b6e:	58d4      	ldr	r4, [r2, r3]
 8000b70:	50c4      	str	r4, [r0, r3]
 8000b72:	3304      	adds	r3, #4

08000b74 <LoopCopyDataInit>:
 8000b74:	18c4      	adds	r4, r0, r3
 8000b76:	428c      	cmp	r4, r1
 8000b78:	d3f9      	bcc.n	8000b6e <CopyDataInit>
 8000b7a:	4a0a      	ldr	r2, [pc, #40]	; (8000ba4 <LoopForever+0x12>)
 8000b7c:	4c0a      	ldr	r4, [pc, #40]	; (8000ba8 <LoopForever+0x16>)
 8000b7e:	2300      	movs	r3, #0
 8000b80:	e001      	b.n	8000b86 <LoopFillZerobss>

08000b82 <FillZerobss>:
 8000b82:	6013      	str	r3, [r2, #0]
 8000b84:	3204      	adds	r2, #4

08000b86 <LoopFillZerobss>:
 8000b86:	42a2      	cmp	r2, r4
 8000b88:	d3fb      	bcc.n	8000b82 <FillZerobss>
 8000b8a:	f000 fdf7 	bl	800177c <__libc_init_array>
 8000b8e:	f7ff ff3b 	bl	8000a08 <main>

08000b92 <LoopForever>:
 8000b92:	e7fe      	b.n	8000b92 <LoopForever>
 8000b94:	20002000 	.word	0x20002000
 8000b98:	20000000 	.word	0x20000000
 8000b9c:	20000088 	.word	0x20000088
 8000ba0:	08001914 	.word	0x08001914
 8000ba4:	20000088 	.word	0x20000088
 8000ba8:	200001e0 	.word	0x200001e0

08000bac <ADC1_IRQHandler>:
 8000bac:	e7fe      	b.n	8000bac <ADC1_IRQHandler>
	...

08000bb0 <HAL_InitTick>:
 8000bb0:	b570      	push	{r4, r5, r6, lr}
 8000bb2:	4b10      	ldr	r3, [pc, #64]	; (8000bf4 <HAL_InitTick+0x44>)
 8000bb4:	0005      	movs	r5, r0
 8000bb6:	7819      	ldrb	r1, [r3, #0]
 8000bb8:	2900      	cmp	r1, #0
 8000bba:	d101      	bne.n	8000bc0 <HAL_InitTick+0x10>
 8000bbc:	2001      	movs	r0, #1
 8000bbe:	bd70      	pop	{r4, r5, r6, pc}
 8000bc0:	20fa      	movs	r0, #250	; 0xfa
 8000bc2:	0080      	lsls	r0, r0, #2
 8000bc4:	f7ff fa9c 	bl	8000100 <__udivsi3>
 8000bc8:	4b0b      	ldr	r3, [pc, #44]	; (8000bf8 <HAL_InitTick+0x48>)
 8000bca:	0001      	movs	r1, r0
 8000bcc:	6818      	ldr	r0, [r3, #0]
 8000bce:	f7ff fa97 	bl	8000100 <__udivsi3>
 8000bd2:	f000 f871 	bl	8000cb8 <HAL_SYSTICK_Config>
 8000bd6:	1e04      	subs	r4, r0, #0
 8000bd8:	d1f0      	bne.n	8000bbc <HAL_InitTick+0xc>
 8000bda:	2d03      	cmp	r5, #3
 8000bdc:	d8ee      	bhi.n	8000bbc <HAL_InitTick+0xc>
 8000bde:	0002      	movs	r2, r0
 8000be0:	2001      	movs	r0, #1
 8000be2:	0029      	movs	r1, r5
 8000be4:	4240      	negs	r0, r0
 8000be6:	f000 f831 	bl	8000c4c <HAL_NVIC_SetPriority>
 8000bea:	4b04      	ldr	r3, [pc, #16]	; (8000bfc <HAL_InitTick+0x4c>)
 8000bec:	0020      	movs	r0, r4
 8000bee:	601d      	str	r5, [r3, #0]
 8000bf0:	e7e5      	b.n	8000bbe <HAL_InitTick+0xe>
 8000bf2:	46c0      	nop			; (mov r8, r8)
 8000bf4:	20000080 	.word	0x20000080
 8000bf8:	2000007c 	.word	0x2000007c
 8000bfc:	20000084 	.word	0x20000084

08000c00 <HAL_Init>:
 8000c00:	2380      	movs	r3, #128	; 0x80
 8000c02:	4a08      	ldr	r2, [pc, #32]	; (8000c24 <HAL_Init+0x24>)
 8000c04:	005b      	lsls	r3, r3, #1
 8000c06:	6811      	ldr	r1, [r2, #0]
 8000c08:	b510      	push	{r4, lr}
 8000c0a:	430b      	orrs	r3, r1
 8000c0c:	2003      	movs	r0, #3
 8000c0e:	6013      	str	r3, [r2, #0]
 8000c10:	f7ff ffce 	bl	8000bb0 <HAL_InitTick>
 8000c14:	1e04      	subs	r4, r0, #0
 8000c16:	d103      	bne.n	8000c20 <HAL_Init+0x20>
 8000c18:	f7ff ff40 	bl	8000a9c <HAL_MspInit>
 8000c1c:	0020      	movs	r0, r4
 8000c1e:	bd10      	pop	{r4, pc}
 8000c20:	2401      	movs	r4, #1
 8000c22:	e7fb      	b.n	8000c1c <HAL_Init+0x1c>
 8000c24:	40022000 	.word	0x40022000

08000c28 <HAL_IncTick>:
 8000c28:	4a03      	ldr	r2, [pc, #12]	; (8000c38 <HAL_IncTick+0x10>)
 8000c2a:	4b04      	ldr	r3, [pc, #16]	; (8000c3c <HAL_IncTick+0x14>)
 8000c2c:	6811      	ldr	r1, [r2, #0]
 8000c2e:	781b      	ldrb	r3, [r3, #0]
 8000c30:	185b      	adds	r3, r3, r1
 8000c32:	6013      	str	r3, [r2, #0]
 8000c34:	4770      	bx	lr
 8000c36:	46c0      	nop			; (mov r8, r8)
 8000c38:	200001dc 	.word	0x200001dc
 8000c3c:	20000080 	.word	0x20000080

08000c40 <HAL_GetTick>:
 8000c40:	4b01      	ldr	r3, [pc, #4]	; (8000c48 <HAL_GetTick+0x8>)
 8000c42:	6818      	ldr	r0, [r3, #0]
 8000c44:	4770      	bx	lr
 8000c46:	46c0      	nop			; (mov r8, r8)
 8000c48:	200001dc 	.word	0x200001dc

08000c4c <HAL_NVIC_SetPriority>:
 8000c4c:	b530      	push	{r4, r5, lr}
 8000c4e:	25ff      	movs	r5, #255	; 0xff
 8000c50:	2403      	movs	r4, #3
 8000c52:	002a      	movs	r2, r5
 8000c54:	4004      	ands	r4, r0
 8000c56:	00e4      	lsls	r4, r4, #3
 8000c58:	40a2      	lsls	r2, r4
 8000c5a:	0189      	lsls	r1, r1, #6
 8000c5c:	4029      	ands	r1, r5
 8000c5e:	43d2      	mvns	r2, r2
 8000c60:	40a1      	lsls	r1, r4
 8000c62:	b2c3      	uxtb	r3, r0
 8000c64:	2800      	cmp	r0, #0
 8000c66:	db0a      	blt.n	8000c7e <HAL_NVIC_SetPriority+0x32>
 8000c68:	24c0      	movs	r4, #192	; 0xc0
 8000c6a:	4b0b      	ldr	r3, [pc, #44]	; (8000c98 <HAL_NVIC_SetPriority+0x4c>)
 8000c6c:	0880      	lsrs	r0, r0, #2
 8000c6e:	0080      	lsls	r0, r0, #2
 8000c70:	18c0      	adds	r0, r0, r3
 8000c72:	00a4      	lsls	r4, r4, #2
 8000c74:	5903      	ldr	r3, [r0, r4]
 8000c76:	401a      	ands	r2, r3
 8000c78:	4311      	orrs	r1, r2
 8000c7a:	5101      	str	r1, [r0, r4]
 8000c7c:	bd30      	pop	{r4, r5, pc}
 8000c7e:	200f      	movs	r0, #15
 8000c80:	4003      	ands	r3, r0
 8000c82:	3b08      	subs	r3, #8
 8000c84:	4805      	ldr	r0, [pc, #20]	; (8000c9c <HAL_NVIC_SetPriority+0x50>)
 8000c86:	089b      	lsrs	r3, r3, #2
 8000c88:	009b      	lsls	r3, r3, #2
 8000c8a:	181b      	adds	r3, r3, r0
 8000c8c:	69d8      	ldr	r0, [r3, #28]
 8000c8e:	4002      	ands	r2, r0
 8000c90:	4311      	orrs	r1, r2
 8000c92:	61d9      	str	r1, [r3, #28]
 8000c94:	e7f2      	b.n	8000c7c <HAL_NVIC_SetPriority+0x30>
 8000c96:	46c0      	nop			; (mov r8, r8)
 8000c98:	e000e100 	.word	0xe000e100
 8000c9c:	e000ed00 	.word	0xe000ed00

08000ca0 <HAL_NVIC_EnableIRQ>:
 8000ca0:	2800      	cmp	r0, #0
 8000ca2:	db05      	blt.n	8000cb0 <HAL_NVIC_EnableIRQ+0x10>
 8000ca4:	231f      	movs	r3, #31
 8000ca6:	4018      	ands	r0, r3
 8000ca8:	3b1e      	subs	r3, #30
 8000caa:	4083      	lsls	r3, r0
 8000cac:	4a01      	ldr	r2, [pc, #4]	; (8000cb4 <HAL_NVIC_EnableIRQ+0x14>)
 8000cae:	6013      	str	r3, [r2, #0]
 8000cb0:	4770      	bx	lr
 8000cb2:	46c0      	nop			; (mov r8, r8)
 8000cb4:	e000e100 	.word	0xe000e100

08000cb8 <HAL_SYSTICK_Config>:
 8000cb8:	2280      	movs	r2, #128	; 0x80
 8000cba:	1e43      	subs	r3, r0, #1
 8000cbc:	0452      	lsls	r2, r2, #17
 8000cbe:	2001      	movs	r0, #1
 8000cc0:	4293      	cmp	r3, r2
 8000cc2:	d20d      	bcs.n	8000ce0 <HAL_SYSTICK_Config+0x28>
 8000cc4:	21c0      	movs	r1, #192	; 0xc0
 8000cc6:	4a07      	ldr	r2, [pc, #28]	; (8000ce4 <HAL_SYSTICK_Config+0x2c>)
 8000cc8:	4807      	ldr	r0, [pc, #28]	; (8000ce8 <HAL_SYSTICK_Config+0x30>)
 8000cca:	6053      	str	r3, [r2, #4]
 8000ccc:	6a03      	ldr	r3, [r0, #32]
 8000cce:	0609      	lsls	r1, r1, #24
 8000cd0:	021b      	lsls	r3, r3, #8
 8000cd2:	0a1b      	lsrs	r3, r3, #8
 8000cd4:	430b      	orrs	r3, r1
 8000cd6:	6203      	str	r3, [r0, #32]
 8000cd8:	2000      	movs	r0, #0
 8000cda:	2307      	movs	r3, #7
 8000cdc:	6090      	str	r0, [r2, #8]
 8000cde:	6013      	str	r3, [r2, #0]
 8000ce0:	4770      	bx	lr
 8000ce2:	46c0      	nop			; (mov r8, r8)
 8000ce4:	e000e010 	.word	0xe000e010
 8000ce8:	e000ed00 	.word	0xe000ed00

08000cec <HAL_GPIO_Init>:
 8000cec:	2300      	movs	r3, #0
 8000cee:	b5f0      	push	{r4, r5, r6, r7, lr}
 8000cf0:	b085      	sub	sp, #20
 8000cf2:	680a      	ldr	r2, [r1, #0]
 8000cf4:	0014      	movs	r4, r2
 8000cf6:	40dc      	lsrs	r4, r3
 8000cf8:	d101      	bne.n	8000cfe <HAL_GPIO_Init+0x12>
 8000cfa:	b005      	add	sp, #20
 8000cfc:	bdf0      	pop	{r4, r5, r6, r7, pc}
 8000cfe:	2501      	movs	r5, #1
 8000d00:	0014      	movs	r4, r2
 8000d02:	409d      	lsls	r5, r3
 8000d04:	402c      	ands	r4, r5
 8000d06:	9401      	str	r4, [sp, #4]
 8000d08:	422a      	tst	r2, r5
 8000d0a:	d100      	bne.n	8000d0e <HAL_GPIO_Init+0x22>
 8000d0c:	e08e      	b.n	8000e2c <HAL_GPIO_Init+0x140>
 8000d0e:	684a      	ldr	r2, [r1, #4]
 8000d10:	005e      	lsls	r6, r3, #1
 8000d12:	4694      	mov	ip, r2
 8000d14:	2203      	movs	r2, #3
 8000d16:	4664      	mov	r4, ip
 8000d18:	4022      	ands	r2, r4
 8000d1a:	2403      	movs	r4, #3
 8000d1c:	40b4      	lsls	r4, r6
 8000d1e:	43e4      	mvns	r4, r4
 8000d20:	9402      	str	r4, [sp, #8]
 8000d22:	1e54      	subs	r4, r2, #1
 8000d24:	2c01      	cmp	r4, #1
 8000d26:	d82a      	bhi.n	8000d7e <HAL_GPIO_Init+0x92>
 8000d28:	6887      	ldr	r7, [r0, #8]
 8000d2a:	9c02      	ldr	r4, [sp, #8]
 8000d2c:	4027      	ands	r7, r4
 8000d2e:	68cc      	ldr	r4, [r1, #12]
 8000d30:	40b4      	lsls	r4, r6
 8000d32:	433c      	orrs	r4, r7
 8000d34:	6084      	str	r4, [r0, #8]
 8000d36:	6844      	ldr	r4, [r0, #4]
 8000d38:	2701      	movs	r7, #1
 8000d3a:	43ac      	bics	r4, r5
 8000d3c:	0025      	movs	r5, r4
 8000d3e:	4664      	mov	r4, ip
 8000d40:	0924      	lsrs	r4, r4, #4
 8000d42:	403c      	ands	r4, r7
 8000d44:	409c      	lsls	r4, r3
 8000d46:	432c      	orrs	r4, r5
 8000d48:	6044      	str	r4, [r0, #4]
 8000d4a:	68c5      	ldr	r5, [r0, #12]
 8000d4c:	9c02      	ldr	r4, [sp, #8]
 8000d4e:	4025      	ands	r5, r4
 8000d50:	688c      	ldr	r4, [r1, #8]
 8000d52:	40b4      	lsls	r4, r6
 8000d54:	432c      	orrs	r4, r5
 8000d56:	60c4      	str	r4, [r0, #12]
 8000d58:	2a02      	cmp	r2, #2
 8000d5a:	d112      	bne.n	8000d82 <HAL_GPIO_Init+0x96>
 8000d5c:	08dc      	lsrs	r4, r3, #3
 8000d5e:	2507      	movs	r5, #7
 8000d60:	00a4      	lsls	r4, r4, #2
 8000d62:	1904      	adds	r4, r0, r4
 8000d64:	6a27      	ldr	r7, [r4, #32]
 8000d66:	9403      	str	r4, [sp, #12]
 8000d68:	240f      	movs	r4, #15
 8000d6a:	401d      	ands	r5, r3
 8000d6c:	00ad      	lsls	r5, r5, #2
 8000d6e:	40ac      	lsls	r4, r5
 8000d70:	43a7      	bics	r7, r4
 8000d72:	690c      	ldr	r4, [r1, #16]
 8000d74:	40ac      	lsls	r4, r5
 8000d76:	4327      	orrs	r7, r4
 8000d78:	9c03      	ldr	r4, [sp, #12]
 8000d7a:	6227      	str	r7, [r4, #32]
 8000d7c:	e001      	b.n	8000d82 <HAL_GPIO_Init+0x96>
 8000d7e:	2a03      	cmp	r2, #3
 8000d80:	d1e3      	bne.n	8000d4a <HAL_GPIO_Init+0x5e>
 8000d82:	6804      	ldr	r4, [r0, #0]
 8000d84:	9d02      	ldr	r5, [sp, #8]
 8000d86:	40b2      	lsls	r2, r6
 8000d88:	4025      	ands	r5, r4
 8000d8a:	002c      	movs	r4, r5
 8000d8c:	4314      	orrs	r4, r2
 8000d8e:	6004      	str	r4, [r0, #0]
 8000d90:	24c0      	movs	r4, #192	; 0xc0
 8000d92:	4662      	mov	r2, ip
 8000d94:	02a4      	lsls	r4, r4, #10
 8000d96:	4222      	tst	r2, r4
 8000d98:	d048      	beq.n	8000e2c <HAL_GPIO_Init+0x140>
 8000d9a:	4a25      	ldr	r2, [pc, #148]	; (8000e30 <HAL_GPIO_Init+0x144>)
 8000d9c:	2503      	movs	r5, #3
 8000d9e:	089c      	lsrs	r4, r3, #2
 8000da0:	00a4      	lsls	r4, r4, #2
 8000da2:	18a4      	adds	r4, r4, r2
 8000da4:	220f      	movs	r2, #15
 8000da6:	401d      	ands	r5, r3
 8000da8:	00ed      	lsls	r5, r5, #3
 8000daa:	40aa      	lsls	r2, r5
 8000dac:	27a0      	movs	r7, #160	; 0xa0
 8000dae:	6e26      	ldr	r6, [r4, #96]	; 0x60
 8000db0:	05ff      	lsls	r7, r7, #23
 8000db2:	4396      	bics	r6, r2
 8000db4:	2200      	movs	r2, #0
 8000db6:	42b8      	cmp	r0, r7
 8000db8:	d00c      	beq.n	8000dd4 <HAL_GPIO_Init+0xe8>
 8000dba:	4f1e      	ldr	r7, [pc, #120]	; (8000e34 <HAL_GPIO_Init+0x148>)
 8000dbc:	3201      	adds	r2, #1
 8000dbe:	42b8      	cmp	r0, r7
 8000dc0:	d008      	beq.n	8000dd4 <HAL_GPIO_Init+0xe8>
 8000dc2:	4f1d      	ldr	r7, [pc, #116]	; (8000e38 <HAL_GPIO_Init+0x14c>)
 8000dc4:	3201      	adds	r2, #1
 8000dc6:	42b8      	cmp	r0, r7
 8000dc8:	d004      	beq.n	8000dd4 <HAL_GPIO_Init+0xe8>
 8000dca:	4f1c      	ldr	r7, [pc, #112]	; (8000e3c <HAL_GPIO_Init+0x150>)
 8000dcc:	3201      	adds	r2, #1
 8000dce:	42b8      	cmp	r0, r7
 8000dd0:	d000      	beq.n	8000dd4 <HAL_GPIO_Init+0xe8>
 8000dd2:	3202      	adds	r2, #2
 8000dd4:	40aa      	lsls	r2, r5
 8000dd6:	4667      	mov	r7, ip
 8000dd8:	4332      	orrs	r2, r6
 8000dda:	6622      	str	r2, [r4, #96]	; 0x60
 8000ddc:	4c14      	ldr	r4, [pc, #80]	; (8000e30 <HAL_GPIO_Init+0x144>)
 8000dde:	9a01      	ldr	r2, [sp, #4]
 8000de0:	6826      	ldr	r6, [r4, #0]
 8000de2:	9d01      	ldr	r5, [sp, #4]
 8000de4:	43d2      	mvns	r2, r2
 8000de6:	4335      	orrs	r5, r6
 8000de8:	02ff      	lsls	r7, r7, #11
 8000dea:	d401      	bmi.n	8000df0 <HAL_GPIO_Init+0x104>
 8000dec:	0035      	movs	r5, r6
 8000dee:	4015      	ands	r5, r2
 8000df0:	4667      	mov	r7, ip
 8000df2:	6025      	str	r5, [r4, #0]
 8000df4:	6866      	ldr	r6, [r4, #4]
 8000df6:	9d01      	ldr	r5, [sp, #4]
 8000df8:	4335      	orrs	r5, r6
 8000dfa:	02bf      	lsls	r7, r7, #10
 8000dfc:	d401      	bmi.n	8000e02 <HAL_GPIO_Init+0x116>
 8000dfe:	0035      	movs	r5, r6
 8000e00:	4015      	ands	r5, r2
 8000e02:	4667      	mov	r7, ip
 8000e04:	6065      	str	r5, [r4, #4]
 8000e06:	4c0e      	ldr	r4, [pc, #56]	; (8000e40 <HAL_GPIO_Init+0x154>)
 8000e08:	9d01      	ldr	r5, [sp, #4]
 8000e0a:	6fe6      	ldr	r6, [r4, #124]	; 0x7c
 8000e0c:	4335      	orrs	r5, r6
 8000e0e:	03bf      	lsls	r7, r7, #14
 8000e10:	d401      	bmi.n	8000e16 <HAL_GPIO_Init+0x12a>
 8000e12:	0035      	movs	r5, r6
 8000e14:	4015      	ands	r5, r2
 8000e16:	4667      	mov	r7, ip
 8000e18:	67e5      	str	r5, [r4, #124]	; 0x7c
 8000e1a:	4c0a      	ldr	r4, [pc, #40]	; (8000e44 <HAL_GPIO_Init+0x158>)
 8000e1c:	9e01      	ldr	r6, [sp, #4]
 8000e1e:	6fe5      	ldr	r5, [r4, #124]	; 0x7c
 8000e20:	432e      	orrs	r6, r5
 8000e22:	03ff      	lsls	r7, r7, #15
 8000e24:	d401      	bmi.n	8000e2a <HAL_GPIO_Init+0x13e>
 8000e26:	4015      	ands	r5, r2
 8000e28:	002e      	movs	r6, r5
 8000e2a:	67e6      	str	r6, [r4, #124]	; 0x7c
 8000e2c:	3301      	adds	r3, #1
 8000e2e:	e760      	b.n	8000cf2 <HAL_GPIO_Init+0x6>
 8000e30:	40021800 	.word	0x40021800
 8000e34:	50000400 	.word	0x50000400
 8000e38:	50000800 	.word	0x50000800
 8000e3c:	50000c00 	.word	0x50000c00
 8000e40:	40021808 	.word	0x40021808
 8000e44:	40021804 	.word	0x40021804

08000e48 <HAL_GPIO_ReadPin>:
 8000e48:	6900      	ldr	r0, [r0, #16]
 8000e4a:	4008      	ands	r0, r1
 8000e4c:	1e43      	subs	r3, r0, #1
 8000e4e:	4198      	sbcs	r0, r3
 8000e50:	b2c0      	uxtb	r0, r0
 8000e52:	4770      	bx	lr

08000e54 <HAL_GPIO_WritePin>:
 8000e54:	2a00      	cmp	r2, #0
 8000e56:	d001      	beq.n	8000e5c <HAL_GPIO_WritePin+0x8>
 8000e58:	6181      	str	r1, [r0, #24]
 8000e5a:	4770      	bx	lr
 8000e5c:	6281      	str	r1, [r0, #40]	; 0x28
 8000e5e:	e7fc      	b.n	8000e5a <HAL_GPIO_WritePin+0x6>

08000e60 <HAL_PWREx_ControlVoltageScaling>:
 8000e60:	b510      	push	{r4, lr}
 8000e62:	4c11      	ldr	r4, [pc, #68]	; (8000ea8 <HAL_PWREx_ControlVoltageScaling+0x48>)
 8000e64:	4911      	ldr	r1, [pc, #68]	; (8000eac <HAL_PWREx_ControlVoltageScaling+0x4c>)
 8000e66:	6823      	ldr	r3, [r4, #0]
 8000e68:	0002      	movs	r2, r0
 8000e6a:	400b      	ands	r3, r1
 8000e6c:	4303      	orrs	r3, r0
 8000e6e:	6023      	str	r3, [r4, #0]
 8000e70:	2380      	movs	r3, #128	; 0x80
 8000e72:	2000      	movs	r0, #0
 8000e74:	009b      	lsls	r3, r3, #2
 8000e76:	429a      	cmp	r2, r3
 8000e78:	d10e      	bne.n	8000e98 <HAL_PWREx_ControlVoltageScaling+0x38>
 8000e7a:	4b0d      	ldr	r3, [pc, #52]	; (8000eb0 <HAL_PWREx_ControlVoltageScaling+0x50>)
 8000e7c:	490d      	ldr	r1, [pc, #52]	; (8000eb4 <HAL_PWREx_ControlVoltageScaling+0x54>)
 8000e7e:	6818      	ldr	r0, [r3, #0]
 8000e80:	2306      	movs	r3, #6
 8000e82:	4358      	muls	r0, r3
 8000e84:	f7ff f93c 	bl	8000100 <__udivsi3>
 8000e88:	2280      	movs	r2, #128	; 0x80
 8000e8a:	1c43      	adds	r3, r0, #1
 8000e8c:	00d2      	lsls	r2, r2, #3
 8000e8e:	6961      	ldr	r1, [r4, #20]
 8000e90:	0008      	movs	r0, r1
 8000e92:	4010      	ands	r0, r2
 8000e94:	4211      	tst	r1, r2
 8000e96:	d100      	bne.n	8000e9a <HAL_PWREx_ControlVoltageScaling+0x3a>
 8000e98:	bd10      	pop	{r4, pc}
 8000e9a:	2b00      	cmp	r3, #0
 8000e9c:	d001      	beq.n	8000ea2 <HAL_PWREx_ControlVoltageScaling+0x42>
 8000e9e:	3b01      	subs	r3, #1
 8000ea0:	e7f5      	b.n	8000e8e <HAL_PWREx_ControlVoltageScaling+0x2e>
 8000ea2:	2003      	movs	r0, #3
 8000ea4:	e7f8      	b.n	8000e98 <HAL_PWREx_ControlVoltageScaling+0x38>
 8000ea6:	46c0      	nop			; (mov r8, r8)
 8000ea8:	40007000 	.word	0x40007000
 8000eac:	fffff9ff 	.word	0xfffff9ff
 8000eb0:	2000007c 	.word	0x2000007c
 8000eb4:	000f4240 	.word	0x000f4240

08000eb8 <HAL_RCC_OscConfig>:
 8000eb8:	b5f0      	push	{r4, r5, r6, r7, lr}
 8000eba:	0004      	movs	r4, r0
 8000ebc:	b085      	sub	sp, #20
 8000ebe:	2800      	cmp	r0, #0
 8000ec0:	d023      	beq.n	8000f0a <HAL_RCC_OscConfig+0x52>
 8000ec2:	6803      	ldr	r3, [r0, #0]
 8000ec4:	07db      	lsls	r3, r3, #31
 8000ec6:	d410      	bmi.n	8000eea <HAL_RCC_OscConfig+0x32>
 8000ec8:	6823      	ldr	r3, [r4, #0]
 8000eca:	079b      	lsls	r3, r3, #30
 8000ecc:	d45e      	bmi.n	8000f8c <HAL_RCC_OscConfig+0xd4>
 8000ece:	6823      	ldr	r3, [r4, #0]
 8000ed0:	071b      	lsls	r3, r3, #28
 8000ed2:	d500      	bpl.n	8000ed6 <HAL_RCC_OscConfig+0x1e>
 8000ed4:	e0c3      	b.n	800105e <HAL_RCC_OscConfig+0x1a6>
 8000ed6:	6823      	ldr	r3, [r4, #0]
 8000ed8:	075b      	lsls	r3, r3, #29
 8000eda:	d500      	bpl.n	8000ede <HAL_RCC_OscConfig+0x26>
 8000edc:	e0f4      	b.n	80010c8 <HAL_RCC_OscConfig+0x210>
 8000ede:	69e3      	ldr	r3, [r4, #28]
 8000ee0:	2b00      	cmp	r3, #0
 8000ee2:	d000      	beq.n	8000ee6 <HAL_RCC_OscConfig+0x2e>
 8000ee4:	e17a      	b.n	80011dc <HAL_RCC_OscConfig+0x324>
 8000ee6:	2000      	movs	r0, #0
 8000ee8:	e029      	b.n	8000f3e <HAL_RCC_OscConfig+0x86>
 8000eea:	2238      	movs	r2, #56	; 0x38
 8000eec:	4daf      	ldr	r5, [pc, #700]	; (80011ac <HAL_RCC_OscConfig+0x2f4>)
 8000eee:	68ab      	ldr	r3, [r5, #8]
 8000ef0:	4013      	ands	r3, r2
 8000ef2:	68ea      	ldr	r2, [r5, #12]
 8000ef4:	2b10      	cmp	r3, #16
 8000ef6:	d10a      	bne.n	8000f0e <HAL_RCC_OscConfig+0x56>
 8000ef8:	43d2      	mvns	r2, r2
 8000efa:	0793      	lsls	r3, r2, #30
 8000efc:	d109      	bne.n	8000f12 <HAL_RCC_OscConfig+0x5a>
 8000efe:	682b      	ldr	r3, [r5, #0]
 8000f00:	039b      	lsls	r3, r3, #14
 8000f02:	d5e1      	bpl.n	8000ec8 <HAL_RCC_OscConfig+0x10>
 8000f04:	6863      	ldr	r3, [r4, #4]
 8000f06:	2b00      	cmp	r3, #0
 8000f08:	d1de      	bne.n	8000ec8 <HAL_RCC_OscConfig+0x10>
 8000f0a:	2001      	movs	r0, #1
 8000f0c:	e017      	b.n	8000f3e <HAL_RCC_OscConfig+0x86>
 8000f0e:	2b08      	cmp	r3, #8
 8000f10:	d0f5      	beq.n	8000efe <HAL_RCC_OscConfig+0x46>
 8000f12:	2280      	movs	r2, #128	; 0x80
 8000f14:	6863      	ldr	r3, [r4, #4]
 8000f16:	0252      	lsls	r2, r2, #9
 8000f18:	4293      	cmp	r3, r2
 8000f1a:	d112      	bne.n	8000f42 <HAL_RCC_OscConfig+0x8a>
 8000f1c:	682a      	ldr	r2, [r5, #0]
 8000f1e:	4313      	orrs	r3, r2
 8000f20:	602b      	str	r3, [r5, #0]
 8000f22:	f7ff fe8d 	bl	8000c40 <HAL_GetTick>
 8000f26:	2780      	movs	r7, #128	; 0x80
 8000f28:	0006      	movs	r6, r0
 8000f2a:	02bf      	lsls	r7, r7, #10
 8000f2c:	682b      	ldr	r3, [r5, #0]
 8000f2e:	423b      	tst	r3, r7
 8000f30:	d1ca      	bne.n	8000ec8 <HAL_RCC_OscConfig+0x10>
 8000f32:	f7ff fe85 	bl	8000c40 <HAL_GetTick>
 8000f36:	1b80      	subs	r0, r0, r6
 8000f38:	2864      	cmp	r0, #100	; 0x64
 8000f3a:	d9f7      	bls.n	8000f2c <HAL_RCC_OscConfig+0x74>
 8000f3c:	2003      	movs	r0, #3
 8000f3e:	b005      	add	sp, #20
 8000f40:	bdf0      	pop	{r4, r5, r6, r7, pc}
 8000f42:	21a0      	movs	r1, #160	; 0xa0
 8000f44:	02c9      	lsls	r1, r1, #11
 8000f46:	428b      	cmp	r3, r1
 8000f48:	d108      	bne.n	8000f5c <HAL_RCC_OscConfig+0xa4>
 8000f4a:	2380      	movs	r3, #128	; 0x80
 8000f4c:	6829      	ldr	r1, [r5, #0]
 8000f4e:	02db      	lsls	r3, r3, #11
 8000f50:	430b      	orrs	r3, r1
 8000f52:	602b      	str	r3, [r5, #0]
 8000f54:	682b      	ldr	r3, [r5, #0]
 8000f56:	431a      	orrs	r2, r3
 8000f58:	602a      	str	r2, [r5, #0]
 8000f5a:	e7e2      	b.n	8000f22 <HAL_RCC_OscConfig+0x6a>
 8000f5c:	682a      	ldr	r2, [r5, #0]
 8000f5e:	4994      	ldr	r1, [pc, #592]	; (80011b0 <HAL_RCC_OscConfig+0x2f8>)
 8000f60:	400a      	ands	r2, r1
 8000f62:	602a      	str	r2, [r5, #0]
 8000f64:	682a      	ldr	r2, [r5, #0]
 8000f66:	4993      	ldr	r1, [pc, #588]	; (80011b4 <HAL_RCC_OscConfig+0x2fc>)
 8000f68:	400a      	ands	r2, r1
 8000f6a:	602a      	str	r2, [r5, #0]
 8000f6c:	2b00      	cmp	r3, #0
 8000f6e:	d1d8      	bne.n	8000f22 <HAL_RCC_OscConfig+0x6a>
 8000f70:	f7ff fe66 	bl	8000c40 <HAL_GetTick>
 8000f74:	2780      	movs	r7, #128	; 0x80
 8000f76:	0006      	movs	r6, r0
 8000f78:	02bf      	lsls	r7, r7, #10
 8000f7a:	682b      	ldr	r3, [r5, #0]
 8000f7c:	423b      	tst	r3, r7
 8000f7e:	d0a3      	beq.n	8000ec8 <HAL_RCC_OscConfig+0x10>
 8000f80:	f7ff fe5e 	bl	8000c40 <HAL_GetTick>
 8000f84:	1b80      	subs	r0, r0, r6
 8000f86:	2864      	cmp	r0, #100	; 0x64
 8000f88:	d9f7      	bls.n	8000f7a <HAL_RCC_OscConfig+0xc2>
 8000f8a:	e7d7      	b.n	8000f3c <HAL_RCC_OscConfig+0x84>
 8000f8c:	2338      	movs	r3, #56	; 0x38
 8000f8e:	4d87      	ldr	r5, [pc, #540]	; (80011ac <HAL_RCC_OscConfig+0x2f4>)
 8000f90:	68aa      	ldr	r2, [r5, #8]
 8000f92:	4013      	ands	r3, r2
 8000f94:	68ea      	ldr	r2, [r5, #12]
 8000f96:	2b10      	cmp	r3, #16
 8000f98:	d128      	bne.n	8000fec <HAL_RCC_OscConfig+0x134>
 8000f9a:	2103      	movs	r1, #3
 8000f9c:	400a      	ands	r2, r1
 8000f9e:	2a02      	cmp	r2, #2
 8000fa0:	d126      	bne.n	8000ff0 <HAL_RCC_OscConfig+0x138>
 8000fa2:	682a      	ldr	r2, [r5, #0]
 8000fa4:	0552      	lsls	r2, r2, #21
 8000fa6:	d502      	bpl.n	8000fae <HAL_RCC_OscConfig+0xf6>
 8000fa8:	68e2      	ldr	r2, [r4, #12]
 8000faa:	2a00      	cmp	r2, #0
 8000fac:	d0ad      	beq.n	8000f0a <HAL_RCC_OscConfig+0x52>
 8000fae:	6869      	ldr	r1, [r5, #4]
 8000fb0:	6962      	ldr	r2, [r4, #20]
 8000fb2:	4881      	ldr	r0, [pc, #516]	; (80011b8 <HAL_RCC_OscConfig+0x300>)
 8000fb4:	0212      	lsls	r2, r2, #8
 8000fb6:	4001      	ands	r1, r0
 8000fb8:	430a      	orrs	r2, r1
 8000fba:	606a      	str	r2, [r5, #4]
 8000fbc:	2b00      	cmp	r3, #0
 8000fbe:	d10d      	bne.n	8000fdc <HAL_RCC_OscConfig+0x124>
 8000fc0:	682b      	ldr	r3, [r5, #0]
 8000fc2:	4a7e      	ldr	r2, [pc, #504]	; (80011bc <HAL_RCC_OscConfig+0x304>)
 8000fc4:	4013      	ands	r3, r2
 8000fc6:	6922      	ldr	r2, [r4, #16]
 8000fc8:	4313      	orrs	r3, r2
 8000fca:	602b      	str	r3, [r5, #0]
 8000fcc:	682b      	ldr	r3, [r5, #0]
 8000fce:	4a7c      	ldr	r2, [pc, #496]	; (80011c0 <HAL_RCC_OscConfig+0x308>)
 8000fd0:	049b      	lsls	r3, r3, #18
 8000fd2:	0f5b      	lsrs	r3, r3, #29
 8000fd4:	40da      	lsrs	r2, r3
 8000fd6:	0013      	movs	r3, r2
 8000fd8:	4a7a      	ldr	r2, [pc, #488]	; (80011c4 <HAL_RCC_OscConfig+0x30c>)
 8000fda:	6013      	str	r3, [r2, #0]
 8000fdc:	4b7a      	ldr	r3, [pc, #488]	; (80011c8 <HAL_RCC_OscConfig+0x310>)
 8000fde:	6818      	ldr	r0, [r3, #0]
 8000fe0:	f7ff fde6 	bl	8000bb0 <HAL_InitTick>
 8000fe4:	2800      	cmp	r0, #0
 8000fe6:	d100      	bne.n	8000fea <HAL_RCC_OscConfig+0x132>
 8000fe8:	e771      	b.n	8000ece <HAL_RCC_OscConfig+0x16>
 8000fea:	e78e      	b.n	8000f0a <HAL_RCC_OscConfig+0x52>
 8000fec:	2b00      	cmp	r3, #0
 8000fee:	d0d8      	beq.n	8000fa2 <HAL_RCC_OscConfig+0xea>
 8000ff0:	68e3      	ldr	r3, [r4, #12]
 8000ff2:	2b00      	cmp	r3, #0
 8000ff4:	d020      	beq.n	8001038 <HAL_RCC_OscConfig+0x180>
 8000ff6:	682b      	ldr	r3, [r5, #0]
 8000ff8:	4a70      	ldr	r2, [pc, #448]	; (80011bc <HAL_RCC_OscConfig+0x304>)
 8000ffa:	2780      	movs	r7, #128	; 0x80
 8000ffc:	4013      	ands	r3, r2
 8000ffe:	6922      	ldr	r2, [r4, #16]
 8001000:	00ff      	lsls	r7, r7, #3
 8001002:	4313      	orrs	r3, r2
 8001004:	602b      	str	r3, [r5, #0]
 8001006:	2380      	movs	r3, #128	; 0x80
 8001008:	682a      	ldr	r2, [r5, #0]
 800100a:	005b      	lsls	r3, r3, #1
 800100c:	4313      	orrs	r3, r2
 800100e:	602b      	str	r3, [r5, #0]
 8001010:	f7ff fe16 	bl	8000c40 <HAL_GetTick>
 8001014:	0006      	movs	r6, r0
 8001016:	682b      	ldr	r3, [r5, #0]
 8001018:	423b      	tst	r3, r7
 800101a:	d007      	beq.n	800102c <HAL_RCC_OscConfig+0x174>
 800101c:	686a      	ldr	r2, [r5, #4]
 800101e:	6963      	ldr	r3, [r4, #20]
 8001020:	4965      	ldr	r1, [pc, #404]	; (80011b8 <HAL_RCC_OscConfig+0x300>)
 8001022:	021b      	lsls	r3, r3, #8
 8001024:	400a      	ands	r2, r1
 8001026:	4313      	orrs	r3, r2
 8001028:	606b      	str	r3, [r5, #4]
 800102a:	e750      	b.n	8000ece <HAL_RCC_OscConfig+0x16>
 800102c:	f7ff fe08 	bl	8000c40 <HAL_GetTick>
 8001030:	1b80      	subs	r0, r0, r6
 8001032:	2802      	cmp	r0, #2
 8001034:	d9ef      	bls.n	8001016 <HAL_RCC_OscConfig+0x15e>
 8001036:	e781      	b.n	8000f3c <HAL_RCC_OscConfig+0x84>
 8001038:	682b      	ldr	r3, [r5, #0]
 800103a:	4a64      	ldr	r2, [pc, #400]	; (80011cc <HAL_RCC_OscConfig+0x314>)
 800103c:	2780      	movs	r7, #128	; 0x80
 800103e:	4013      	ands	r3, r2
 8001040:	602b      	str	r3, [r5, #0]
 8001042:	f7ff fdfd 	bl	8000c40 <HAL_GetTick>
 8001046:	0006      	movs	r6, r0
 8001048:	00ff      	lsls	r7, r7, #3
 800104a:	682b      	ldr	r3, [r5, #0]
 800104c:	423b      	tst	r3, r7
 800104e:	d100      	bne.n	8001052 <HAL_RCC_OscConfig+0x19a>
 8001050:	e73d      	b.n	8000ece <HAL_RCC_OscConfig+0x16>
 8001052:	f7ff fdf5 	bl	8000c40 <HAL_GetTick>
 8001056:	1b80      	subs	r0, r0, r6
 8001058:	2802      	cmp	r0, #2
 800105a:	d9f6      	bls.n	800104a <HAL_RCC_OscConfig+0x192>
 800105c:	e76e      	b.n	8000f3c <HAL_RCC_OscConfig+0x84>
 800105e:	2238      	movs	r2, #56	; 0x38
 8001060:	4d52      	ldr	r5, [pc, #328]	; (80011ac <HAL_RCC_OscConfig+0x2f4>)
 8001062:	68ab      	ldr	r3, [r5, #8]
 8001064:	4013      	ands	r3, r2
 8001066:	2b18      	cmp	r3, #24
 8001068:	d108      	bne.n	800107c <HAL_RCC_OscConfig+0x1c4>
 800106a:	6e2b      	ldr	r3, [r5, #96]	; 0x60
 800106c:	079b      	lsls	r3, r3, #30
 800106e:	d400      	bmi.n	8001072 <HAL_RCC_OscConfig+0x1ba>
 8001070:	e731      	b.n	8000ed6 <HAL_RCC_OscConfig+0x1e>
 8001072:	69a3      	ldr	r3, [r4, #24]
 8001074:	2b00      	cmp	r3, #0
 8001076:	d000      	beq.n	800107a <HAL_RCC_OscConfig+0x1c2>
 8001078:	e72d      	b.n	8000ed6 <HAL_RCC_OscConfig+0x1e>
 800107a:	e746      	b.n	8000f0a <HAL_RCC_OscConfig+0x52>
 800107c:	69a2      	ldr	r2, [r4, #24]
 800107e:	2301      	movs	r3, #1
 8001080:	2a00      	cmp	r2, #0
 8001082:	d010      	beq.n	80010a6 <HAL_RCC_OscConfig+0x1ee>
 8001084:	6e2a      	ldr	r2, [r5, #96]	; 0x60
 8001086:	2702      	movs	r7, #2
 8001088:	4313      	orrs	r3, r2
 800108a:	662b      	str	r3, [r5, #96]	; 0x60
 800108c:	f7ff fdd8 	bl	8000c40 <HAL_GetTick>
 8001090:	0006      	movs	r6, r0
 8001092:	6e2b      	ldr	r3, [r5, #96]	; 0x60
 8001094:	423b      	tst	r3, r7
 8001096:	d000      	beq.n	800109a <HAL_RCC_OscConfig+0x1e2>
 8001098:	e71d      	b.n	8000ed6 <HAL_RCC_OscConfig+0x1e>
 800109a:	f7ff fdd1 	bl	8000c40 <HAL_GetTick>
 800109e:	1b80      	subs	r0, r0, r6
 80010a0:	2802      	cmp	r0, #2
 80010a2:	d9f6      	bls.n	8001092 <HAL_RCC_OscConfig+0x1da>
 80010a4:	e74a      	b.n	8000f3c <HAL_RCC_OscConfig+0x84>
 80010a6:	6e2a      	ldr	r2, [r5, #96]	; 0x60
 80010a8:	2702      	movs	r7, #2
 80010aa:	439a      	bics	r2, r3
 80010ac:	662a      	str	r2, [r5, #96]	; 0x60
 80010ae:	f7ff fdc7 	bl	8000c40 <HAL_GetTick>
 80010b2:	0006      	movs	r6, r0
 80010b4:	6e2b      	ldr	r3, [r5, #96]	; 0x60
 80010b6:	423b      	tst	r3, r7
 80010b8:	d100      	bne.n	80010bc <HAL_RCC_OscConfig+0x204>
 80010ba:	e70c      	b.n	8000ed6 <HAL_RCC_OscConfig+0x1e>
 80010bc:	f7ff fdc0 	bl	8000c40 <HAL_GetTick>
 80010c0:	1b80      	subs	r0, r0, r6
 80010c2:	2802      	cmp	r0, #2
 80010c4:	d9f6      	bls.n	80010b4 <HAL_RCC_OscConfig+0x1fc>
 80010c6:	e739      	b.n	8000f3c <HAL_RCC_OscConfig+0x84>
 80010c8:	2238      	movs	r2, #56	; 0x38
 80010ca:	4d38      	ldr	r5, [pc, #224]	; (80011ac <HAL_RCC_OscConfig+0x2f4>)
 80010cc:	68ab      	ldr	r3, [r5, #8]
 80010ce:	4013      	ands	r3, r2
 80010d0:	2b20      	cmp	r3, #32
 80010d2:	d108      	bne.n	80010e6 <HAL_RCC_OscConfig+0x22e>
 80010d4:	6deb      	ldr	r3, [r5, #92]	; 0x5c
 80010d6:	079b      	lsls	r3, r3, #30
 80010d8:	d400      	bmi.n	80010dc <HAL_RCC_OscConfig+0x224>
 80010da:	e700      	b.n	8000ede <HAL_RCC_OscConfig+0x26>
 80010dc:	68a3      	ldr	r3, [r4, #8]
 80010de:	2b00      	cmp	r3, #0
 80010e0:	d000      	beq.n	80010e4 <HAL_RCC_OscConfig+0x22c>
 80010e2:	e6fc      	b.n	8000ede <HAL_RCC_OscConfig+0x26>
 80010e4:	e711      	b.n	8000f0a <HAL_RCC_OscConfig+0x52>
 80010e6:	2280      	movs	r2, #128	; 0x80
 80010e8:	2100      	movs	r1, #0
 80010ea:	6beb      	ldr	r3, [r5, #60]	; 0x3c
 80010ec:	0552      	lsls	r2, r2, #21
 80010ee:	9100      	str	r1, [sp, #0]
 80010f0:	4213      	tst	r3, r2
 80010f2:	d108      	bne.n	8001106 <HAL_RCC_OscConfig+0x24e>
 80010f4:	6beb      	ldr	r3, [r5, #60]	; 0x3c
 80010f6:	4313      	orrs	r3, r2
 80010f8:	63eb      	str	r3, [r5, #60]	; 0x3c
 80010fa:	6beb      	ldr	r3, [r5, #60]	; 0x3c
 80010fc:	4013      	ands	r3, r2
 80010fe:	9303      	str	r3, [sp, #12]
 8001100:	9b03      	ldr	r3, [sp, #12]
 8001102:	2301      	movs	r3, #1
 8001104:	9300      	str	r3, [sp, #0]
 8001106:	2780      	movs	r7, #128	; 0x80
 8001108:	4e31      	ldr	r6, [pc, #196]	; (80011d0 <HAL_RCC_OscConfig+0x318>)
 800110a:	007f      	lsls	r7, r7, #1
 800110c:	6833      	ldr	r3, [r6, #0]
 800110e:	423b      	tst	r3, r7
 8001110:	d015      	beq.n	800113e <HAL_RCC_OscConfig+0x286>
 8001112:	68a3      	ldr	r3, [r4, #8]
 8001114:	2b01      	cmp	r3, #1
 8001116:	d122      	bne.n	800115e <HAL_RCC_OscConfig+0x2a6>
 8001118:	6dea      	ldr	r2, [r5, #92]	; 0x5c
 800111a:	4313      	orrs	r3, r2
 800111c:	65eb      	str	r3, [r5, #92]	; 0x5c
 800111e:	f7ff fd8f 	bl	8000c40 <HAL_GetTick>
 8001122:	2702      	movs	r7, #2
 8001124:	0006      	movs	r6, r0
 8001126:	6deb      	ldr	r3, [r5, #92]	; 0x5c
 8001128:	423b      	tst	r3, r7
 800112a:	d038      	beq.n	800119e <HAL_RCC_OscConfig+0x2e6>
 800112c:	9b00      	ldr	r3, [sp, #0]
 800112e:	2b01      	cmp	r3, #1
 8001130:	d000      	beq.n	8001134 <HAL_RCC_OscConfig+0x27c>
 8001132:	e6d4      	b.n	8000ede <HAL_RCC_OscConfig+0x26>
 8001134:	6beb      	ldr	r3, [r5, #60]	; 0x3c
 8001136:	4a27      	ldr	r2, [pc, #156]	; (80011d4 <HAL_RCC_OscConfig+0x31c>)
 8001138:	4013      	ands	r3, r2
 800113a:	63eb      	str	r3, [r5, #60]	; 0x3c
 800113c:	e6cf      	b.n	8000ede <HAL_RCC_OscConfig+0x26>
 800113e:	6833      	ldr	r3, [r6, #0]
 8001140:	433b      	orrs	r3, r7
 8001142:	6033      	str	r3, [r6, #0]
 8001144:	f7ff fd7c 	bl	8000c40 <HAL_GetTick>
 8001148:	9001      	str	r0, [sp, #4]
 800114a:	6833      	ldr	r3, [r6, #0]
 800114c:	423b      	tst	r3, r7
 800114e:	d1e0      	bne.n	8001112 <HAL_RCC_OscConfig+0x25a>
 8001150:	f7ff fd76 	bl	8000c40 <HAL_GetTick>
 8001154:	9b01      	ldr	r3, [sp, #4]
 8001156:	1ac0      	subs	r0, r0, r3
 8001158:	2802      	cmp	r0, #2
 800115a:	d9f6      	bls.n	800114a <HAL_RCC_OscConfig+0x292>
 800115c:	e6ee      	b.n	8000f3c <HAL_RCC_OscConfig+0x84>
 800115e:	6dea      	ldr	r2, [r5, #92]	; 0x5c
 8001160:	2b05      	cmp	r3, #5
 8001162:	d105      	bne.n	8001170 <HAL_RCC_OscConfig+0x2b8>
 8001164:	3b01      	subs	r3, #1
 8001166:	4313      	orrs	r3, r2
 8001168:	65eb      	str	r3, [r5, #92]	; 0x5c
 800116a:	6dea      	ldr	r2, [r5, #92]	; 0x5c
 800116c:	2301      	movs	r3, #1
 800116e:	e7d4      	b.n	800111a <HAL_RCC_OscConfig+0x262>
 8001170:	2101      	movs	r1, #1
 8001172:	438a      	bics	r2, r1
 8001174:	65ea      	str	r2, [r5, #92]	; 0x5c
 8001176:	6dea      	ldr	r2, [r5, #92]	; 0x5c
 8001178:	3103      	adds	r1, #3
 800117a:	438a      	bics	r2, r1
 800117c:	65ea      	str	r2, [r5, #92]	; 0x5c
 800117e:	2b00      	cmp	r3, #0
 8001180:	d1cd      	bne.n	800111e <HAL_RCC_OscConfig+0x266>
 8001182:	f7ff fd5d 	bl	8000c40 <HAL_GetTick>
 8001186:	2702      	movs	r7, #2
 8001188:	0006      	movs	r6, r0
 800118a:	6deb      	ldr	r3, [r5, #92]	; 0x5c
 800118c:	423b      	tst	r3, r7
 800118e:	d0cd      	beq.n	800112c <HAL_RCC_OscConfig+0x274>
 8001190:	f7ff fd56 	bl	8000c40 <HAL_GetTick>
 8001194:	4b10      	ldr	r3, [pc, #64]	; (80011d8 <HAL_RCC_OscConfig+0x320>)
 8001196:	1b80      	subs	r0, r0, r6
 8001198:	4298      	cmp	r0, r3
 800119a:	d9f6      	bls.n	800118a <HAL_RCC_OscConfig+0x2d2>
 800119c:	e6ce      	b.n	8000f3c <HAL_RCC_OscConfig+0x84>
 800119e:	f7ff fd4f 	bl	8000c40 <HAL_GetTick>
 80011a2:	4b0d      	ldr	r3, [pc, #52]	; (80011d8 <HAL_RCC_OscConfig+0x320>)
 80011a4:	1b80      	subs	r0, r0, r6
 80011a6:	4298      	cmp	r0, r3
 80011a8:	d9bd      	bls.n	8001126 <HAL_RCC_OscConfig+0x26e>
 80011aa:	e6c7      	b.n	8000f3c <HAL_RCC_OscConfig+0x84>
 80011ac:	40021000 	.word	0x40021000
 80011b0:	fffeffff 	.word	0xfffeffff
 80011b4:	fffbffff 	.word	0xfffbffff
 80011b8:	ffff80ff 	.word	0xffff80ff
 80011bc:	ffffc7ff 	.word	0xffffc7ff
 80011c0:	00f42400 	.word	0x00f42400
 80011c4:	2000007c 	.word	0x2000007c
 80011c8:	20000084 	.word	0x20000084
 80011cc:	fffffeff 	.word	0xfffffeff
 80011d0:	40007000 	.word	0x40007000
 80011d4:	efffffff 	.word	0xefffffff
 80011d8:	00001388 	.word	0x00001388
 80011dc:	2138      	movs	r1, #56	; 0x38
 80011de:	4d3f      	ldr	r5, [pc, #252]	; (80012dc <HAL_RCC_OscConfig+0x424>)
 80011e0:	68aa      	ldr	r2, [r5, #8]
 80011e2:	400a      	ands	r2, r1
 80011e4:	2a10      	cmp	r2, #16
 80011e6:	d053      	beq.n	8001290 <HAL_RCC_OscConfig+0x3d8>
 80011e8:	4a3d      	ldr	r2, [pc, #244]	; (80012e0 <HAL_RCC_OscConfig+0x428>)
 80011ea:	2b02      	cmp	r3, #2
 80011ec:	d138      	bne.n	8001260 <HAL_RCC_OscConfig+0x3a8>
 80011ee:	682b      	ldr	r3, [r5, #0]
 80011f0:	2780      	movs	r7, #128	; 0x80
 80011f2:	4013      	ands	r3, r2
 80011f4:	602b      	str	r3, [r5, #0]
 80011f6:	f7ff fd23 	bl	8000c40 <HAL_GetTick>
 80011fa:	0006      	movs	r6, r0
 80011fc:	04bf      	lsls	r7, r7, #18
 80011fe:	682b      	ldr	r3, [r5, #0]
 8001200:	423b      	tst	r3, r7
 8001202:	d127      	bne.n	8001254 <HAL_RCC_OscConfig+0x39c>
 8001204:	6a61      	ldr	r1, [r4, #36]	; 0x24
 8001206:	6a23      	ldr	r3, [r4, #32]
 8001208:	68ea      	ldr	r2, [r5, #12]
 800120a:	430b      	orrs	r3, r1
 800120c:	4935      	ldr	r1, [pc, #212]	; (80012e4 <HAL_RCC_OscConfig+0x42c>)
 800120e:	2680      	movs	r6, #128	; 0x80
 8001210:	400a      	ands	r2, r1
 8001212:	4313      	orrs	r3, r2
 8001214:	6ae2      	ldr	r2, [r4, #44]	; 0x2c
 8001216:	04b6      	lsls	r6, r6, #18
 8001218:	4313      	orrs	r3, r2
 800121a:	6b22      	ldr	r2, [r4, #48]	; 0x30
 800121c:	4313      	orrs	r3, r2
 800121e:	6aa2      	ldr	r2, [r4, #40]	; 0x28
 8001220:	0212      	lsls	r2, r2, #8
 8001222:	4313      	orrs	r3, r2
 8001224:	60eb      	str	r3, [r5, #12]
 8001226:	2380      	movs	r3, #128	; 0x80
 8001228:	682a      	ldr	r2, [r5, #0]
 800122a:	045b      	lsls	r3, r3, #17
 800122c:	4313      	orrs	r3, r2
 800122e:	602b      	str	r3, [r5, #0]
 8001230:	2380      	movs	r3, #128	; 0x80
 8001232:	68ea      	ldr	r2, [r5, #12]
 8001234:	055b      	lsls	r3, r3, #21
 8001236:	4313      	orrs	r3, r2
 8001238:	60eb      	str	r3, [r5, #12]
 800123a:	f7ff fd01 	bl	8000c40 <HAL_GetTick>
 800123e:	0004      	movs	r4, r0
 8001240:	682b      	ldr	r3, [r5, #0]
 8001242:	4233      	tst	r3, r6
 8001244:	d000      	beq.n	8001248 <HAL_RCC_OscConfig+0x390>
 8001246:	e64e      	b.n	8000ee6 <HAL_RCC_OscConfig+0x2e>
 8001248:	f7ff fcfa 	bl	8000c40 <HAL_GetTick>
 800124c:	1b00      	subs	r0, r0, r4
 800124e:	2802      	cmp	r0, #2
 8001250:	d9f6      	bls.n	8001240 <HAL_RCC_OscConfig+0x388>
 8001252:	e673      	b.n	8000f3c <HAL_RCC_OscConfig+0x84>
 8001254:	f7ff fcf4 	bl	8000c40 <HAL_GetTick>
 8001258:	1b80      	subs	r0, r0, r6
 800125a:	2802      	cmp	r0, #2
 800125c:	d9cf      	bls.n	80011fe <HAL_RCC_OscConfig+0x346>
 800125e:	e66d      	b.n	8000f3c <HAL_RCC_OscConfig+0x84>
 8001260:	682b      	ldr	r3, [r5, #0]
 8001262:	2680      	movs	r6, #128	; 0x80
 8001264:	4013      	ands	r3, r2
 8001266:	602b      	str	r3, [r5, #0]
 8001268:	f7ff fcea 	bl	8000c40 <HAL_GetTick>
 800126c:	0004      	movs	r4, r0
 800126e:	04b6      	lsls	r6, r6, #18
 8001270:	682b      	ldr	r3, [r5, #0]
 8001272:	0018      	movs	r0, r3
 8001274:	4030      	ands	r0, r6
 8001276:	4233      	tst	r3, r6
 8001278:	d104      	bne.n	8001284 <HAL_RCC_OscConfig+0x3cc>
 800127a:	68eb      	ldr	r3, [r5, #12]
 800127c:	4a1a      	ldr	r2, [pc, #104]	; (80012e8 <HAL_RCC_OscConfig+0x430>)
 800127e:	4013      	ands	r3, r2
 8001280:	60eb      	str	r3, [r5, #12]
 8001282:	e65c      	b.n	8000f3e <HAL_RCC_OscConfig+0x86>
 8001284:	f7ff fcdc 	bl	8000c40 <HAL_GetTick>
 8001288:	1b00      	subs	r0, r0, r4
 800128a:	2802      	cmp	r0, #2
 800128c:	d9f0      	bls.n	8001270 <HAL_RCC_OscConfig+0x3b8>
 800128e:	e655      	b.n	8000f3c <HAL_RCC_OscConfig+0x84>
 8001290:	2b01      	cmp	r3, #1
 8001292:	d100      	bne.n	8001296 <HAL_RCC_OscConfig+0x3de>
 8001294:	e639      	b.n	8000f0a <HAL_RCC_OscConfig+0x52>
 8001296:	2203      	movs	r2, #3
 8001298:	68eb      	ldr	r3, [r5, #12]
 800129a:	6a21      	ldr	r1, [r4, #32]
 800129c:	401a      	ands	r2, r3
 800129e:	428a      	cmp	r2, r1
 80012a0:	d000      	beq.n	80012a4 <HAL_RCC_OscConfig+0x3ec>
 80012a2:	e632      	b.n	8000f0a <HAL_RCC_OscConfig+0x52>
 80012a4:	2270      	movs	r2, #112	; 0x70
 80012a6:	6a61      	ldr	r1, [r4, #36]	; 0x24
 80012a8:	401a      	ands	r2, r3
 80012aa:	428a      	cmp	r2, r1
 80012ac:	d000      	beq.n	80012b0 <HAL_RCC_OscConfig+0x3f8>
 80012ae:	e62c      	b.n	8000f0a <HAL_RCC_OscConfig+0x52>
 80012b0:	21fe      	movs	r1, #254	; 0xfe
 80012b2:	6aa2      	ldr	r2, [r4, #40]	; 0x28
 80012b4:	01c9      	lsls	r1, r1, #7
 80012b6:	4019      	ands	r1, r3
 80012b8:	0212      	lsls	r2, r2, #8
 80012ba:	4291      	cmp	r1, r2
 80012bc:	d000      	beq.n	80012c0 <HAL_RCC_OscConfig+0x408>
 80012be:	e624      	b.n	8000f0a <HAL_RCC_OscConfig+0x52>
 80012c0:	22f8      	movs	r2, #248	; 0xf8
 80012c2:	6ae1      	ldr	r1, [r4, #44]	; 0x2c
 80012c4:	0392      	lsls	r2, r2, #14
 80012c6:	401a      	ands	r2, r3
 80012c8:	428a      	cmp	r2, r1
 80012ca:	d000      	beq.n	80012ce <HAL_RCC_OscConfig+0x416>
 80012cc:	e61d      	b.n	8000f0a <HAL_RCC_OscConfig+0x52>
 80012ce:	6b22      	ldr	r2, [r4, #48]	; 0x30
 80012d0:	0f5b      	lsrs	r3, r3, #29
 80012d2:	075b      	lsls	r3, r3, #29
 80012d4:	4293      	cmp	r3, r2
 80012d6:	d100      	bne.n	80012da <HAL_RCC_OscConfig+0x422>
 80012d8:	e605      	b.n	8000ee6 <HAL_RCC_OscConfig+0x2e>
 80012da:	e616      	b.n	8000f0a <HAL_RCC_OscConfig+0x52>
 80012dc:	40021000 	.word	0x40021000
 80012e0:	feffffff 	.word	0xfeffffff
 80012e4:	1fc1808c 	.word	0x1fc1808c
 80012e8:	effefffc 	.word	0xeffefffc

080012ec <HAL_RCC_GetSysClockFreq>:
 80012ec:	2338      	movs	r3, #56	; 0x38
 80012ee:	b570      	push	{r4, r5, r6, lr}
 80012f0:	4c1e      	ldr	r4, [pc, #120]	; (800136c <HAL_RCC_GetSysClockFreq+0x80>)
 80012f2:	68a2      	ldr	r2, [r4, #8]
 80012f4:	421a      	tst	r2, r3
 80012f6:	d105      	bne.n	8001304 <HAL_RCC_GetSysClockFreq+0x18>
 80012f8:	6823      	ldr	r3, [r4, #0]
 80012fa:	481d      	ldr	r0, [pc, #116]	; (8001370 <HAL_RCC_GetSysClockFreq+0x84>)
 80012fc:	049b      	lsls	r3, r3, #18
 80012fe:	0f5b      	lsrs	r3, r3, #29
 8001300:	40d8      	lsrs	r0, r3
 8001302:	bd70      	pop	{r4, r5, r6, pc}
 8001304:	68a2      	ldr	r2, [r4, #8]
 8001306:	401a      	ands	r2, r3
 8001308:	2a08      	cmp	r2, #8
 800130a:	d02a      	beq.n	8001362 <HAL_RCC_GetSysClockFreq+0x76>
 800130c:	68a2      	ldr	r2, [r4, #8]
 800130e:	401a      	ands	r2, r3
 8001310:	2a10      	cmp	r2, #16
 8001312:	d11a      	bne.n	800134a <HAL_RCC_GetSysClockFreq+0x5e>
 8001314:	68e3      	ldr	r3, [r4, #12]
 8001316:	68e1      	ldr	r1, [r4, #12]
 8001318:	43db      	mvns	r3, r3
 800131a:	0649      	lsls	r1, r1, #25
 800131c:	0f49      	lsrs	r1, r1, #29
 800131e:	257f      	movs	r5, #127	; 0x7f
 8001320:	3101      	adds	r1, #1
 8001322:	079b      	lsls	r3, r3, #30
 8001324:	d10c      	bne.n	8001340 <HAL_RCC_GetSysClockFreq+0x54>
 8001326:	68e3      	ldr	r3, [r4, #12]
 8001328:	4812      	ldr	r0, [pc, #72]	; (8001374 <HAL_RCC_GetSysClockFreq+0x88>)
 800132a:	0a1b      	lsrs	r3, r3, #8
 800132c:	401d      	ands	r5, r3
 800132e:	f7fe fee7 	bl	8000100 <__udivsi3>
 8001332:	68e1      	ldr	r1, [r4, #12]
 8001334:	4368      	muls	r0, r5
 8001336:	0f49      	lsrs	r1, r1, #29
 8001338:	3101      	adds	r1, #1
 800133a:	f7fe fee1 	bl	8000100 <__udivsi3>
 800133e:	e7e0      	b.n	8001302 <HAL_RCC_GetSysClockFreq+0x16>
 8001340:	68e3      	ldr	r3, [r4, #12]
 8001342:	480b      	ldr	r0, [pc, #44]	; (8001370 <HAL_RCC_GetSysClockFreq+0x84>)
 8001344:	0a1b      	lsrs	r3, r3, #8
 8001346:	401d      	ands	r5, r3
 8001348:	e7f1      	b.n	800132e <HAL_RCC_GetSysClockFreq+0x42>
 800134a:	68a2      	ldr	r2, [r4, #8]
 800134c:	401a      	ands	r2, r3
 800134e:	2a20      	cmp	r2, #32
 8001350:	d009      	beq.n	8001366 <HAL_RCC_GetSysClockFreq+0x7a>
 8001352:	68a2      	ldr	r2, [r4, #8]
 8001354:	2000      	movs	r0, #0
 8001356:	4013      	ands	r3, r2
 8001358:	2b18      	cmp	r3, #24
 800135a:	d1d2      	bne.n	8001302 <HAL_RCC_GetSysClockFreq+0x16>
 800135c:	20fa      	movs	r0, #250	; 0xfa
 800135e:	01c0      	lsls	r0, r0, #7
 8001360:	e7cf      	b.n	8001302 <HAL_RCC_GetSysClockFreq+0x16>
 8001362:	4804      	ldr	r0, [pc, #16]	; (8001374 <HAL_RCC_GetSysClockFreq+0x88>)
 8001364:	e7cd      	b.n	8001302 <HAL_RCC_GetSysClockFreq+0x16>
 8001366:	2080      	movs	r0, #128	; 0x80
 8001368:	0200      	lsls	r0, r0, #8
 800136a:	e7ca      	b.n	8001302 <HAL_RCC_GetSysClockFreq+0x16>
 800136c:	40021000 	.word	0x40021000
 8001370:	00f42400 	.word	0x00f42400
 8001374:	007a1200 	.word	0x007a1200

08001378 <HAL_RCC_ClockConfig>:
 8001378:	b5f7      	push	{r0, r1, r2, r4, r5, r6, r7, lr}
 800137a:	0004      	movs	r4, r0
 800137c:	000d      	movs	r5, r1
 800137e:	2800      	cmp	r0, #0
 8001380:	d101      	bne.n	8001386 <HAL_RCC_ClockConfig+0xe>
 8001382:	2001      	movs	r0, #1
 8001384:	bdfe      	pop	{r1, r2, r3, r4, r5, r6, r7, pc}
 8001386:	2707      	movs	r7, #7
 8001388:	4e4a      	ldr	r6, [pc, #296]	; (80014b4 <HAL_RCC_ClockConfig+0x13c>)
 800138a:	6833      	ldr	r3, [r6, #0]
 800138c:	403b      	ands	r3, r7
 800138e:	428b      	cmp	r3, r1
 8001390:	d32a      	bcc.n	80013e8 <HAL_RCC_ClockConfig+0x70>
 8001392:	6821      	ldr	r1, [r4, #0]
 8001394:	078b      	lsls	r3, r1, #30
 8001396:	d43b      	bmi.n	8001410 <HAL_RCC_ClockConfig+0x98>
 8001398:	07cb      	lsls	r3, r1, #31
 800139a:	d448      	bmi.n	800142e <HAL_RCC_ClockConfig+0xb6>
 800139c:	2707      	movs	r7, #7
 800139e:	6833      	ldr	r3, [r6, #0]
 80013a0:	403b      	ands	r3, r7
 80013a2:	42ab      	cmp	r3, r5
 80013a4:	d90a      	bls.n	80013bc <HAL_RCC_ClockConfig+0x44>
 80013a6:	6833      	ldr	r3, [r6, #0]
 80013a8:	43bb      	bics	r3, r7
 80013aa:	432b      	orrs	r3, r5
 80013ac:	6033      	str	r3, [r6, #0]
 80013ae:	f7ff fc47 	bl	8000c40 <HAL_GetTick>
 80013b2:	9001      	str	r0, [sp, #4]
 80013b4:	6833      	ldr	r3, [r6, #0]
 80013b6:	403b      	ands	r3, r7
 80013b8:	42ab      	cmp	r3, r5
 80013ba:	d16b      	bne.n	8001494 <HAL_RCC_ClockConfig+0x11c>
 80013bc:	6823      	ldr	r3, [r4, #0]
 80013be:	4d3e      	ldr	r5, [pc, #248]	; (80014b8 <HAL_RCC_ClockConfig+0x140>)
 80013c0:	075b      	lsls	r3, r3, #29
 80013c2:	d46f      	bmi.n	80014a4 <HAL_RCC_ClockConfig+0x12c>
 80013c4:	f7ff ff92 	bl	80012ec <HAL_RCC_GetSysClockFreq>
 80013c8:	68ab      	ldr	r3, [r5, #8]
 80013ca:	4a3c      	ldr	r2, [pc, #240]	; (80014bc <HAL_RCC_ClockConfig+0x144>)
 80013cc:	051b      	lsls	r3, r3, #20
 80013ce:	0f1b      	lsrs	r3, r3, #28
 80013d0:	009b      	lsls	r3, r3, #2
 80013d2:	589b      	ldr	r3, [r3, r2]
 80013d4:	221f      	movs	r2, #31
 80013d6:	4013      	ands	r3, r2
 80013d8:	40d8      	lsrs	r0, r3
 80013da:	4b39      	ldr	r3, [pc, #228]	; (80014c0 <HAL_RCC_ClockConfig+0x148>)
 80013dc:	6018      	str	r0, [r3, #0]
 80013de:	4b39      	ldr	r3, [pc, #228]	; (80014c4 <HAL_RCC_ClockConfig+0x14c>)
 80013e0:	6818      	ldr	r0, [r3, #0]
 80013e2:	f7ff fbe5 	bl	8000bb0 <HAL_InitTick>
 80013e6:	e7cd      	b.n	8001384 <HAL_RCC_ClockConfig+0xc>
 80013e8:	6833      	ldr	r3, [r6, #0]
 80013ea:	43bb      	bics	r3, r7
 80013ec:	430b      	orrs	r3, r1
 80013ee:	6033      	str	r3, [r6, #0]
 80013f0:	f7ff fc26 	bl	8000c40 <HAL_GetTick>
 80013f4:	9001      	str	r0, [sp, #4]
 80013f6:	6833      	ldr	r3, [r6, #0]
 80013f8:	403b      	ands	r3, r7
 80013fa:	42ab      	cmp	r3, r5
 80013fc:	d0c9      	beq.n	8001392 <HAL_RCC_ClockConfig+0x1a>
 80013fe:	f7ff fc1f 	bl	8000c40 <HAL_GetTick>
 8001402:	9b01      	ldr	r3, [sp, #4]
 8001404:	1ac0      	subs	r0, r0, r3
 8001406:	4b30      	ldr	r3, [pc, #192]	; (80014c8 <HAL_RCC_ClockConfig+0x150>)
 8001408:	4298      	cmp	r0, r3
 800140a:	d9f4      	bls.n	80013f6 <HAL_RCC_ClockConfig+0x7e>
 800140c:	2003      	movs	r0, #3
 800140e:	e7b9      	b.n	8001384 <HAL_RCC_ClockConfig+0xc>
 8001410:	4a29      	ldr	r2, [pc, #164]	; (80014b8 <HAL_RCC_ClockConfig+0x140>)
 8001412:	074b      	lsls	r3, r1, #29
 8001414:	d504      	bpl.n	8001420 <HAL_RCC_ClockConfig+0xa8>
 8001416:	23e0      	movs	r3, #224	; 0xe0
 8001418:	6890      	ldr	r0, [r2, #8]
 800141a:	01db      	lsls	r3, r3, #7
 800141c:	4303      	orrs	r3, r0
 800141e:	6093      	str	r3, [r2, #8]
 8001420:	6893      	ldr	r3, [r2, #8]
 8001422:	482a      	ldr	r0, [pc, #168]	; (80014cc <HAL_RCC_ClockConfig+0x154>)
 8001424:	4003      	ands	r3, r0
 8001426:	68a0      	ldr	r0, [r4, #8]
 8001428:	4303      	orrs	r3, r0
 800142a:	6093      	str	r3, [r2, #8]
 800142c:	e7b4      	b.n	8001398 <HAL_RCC_ClockConfig+0x20>
 800142e:	6862      	ldr	r2, [r4, #4]
 8001430:	4f21      	ldr	r7, [pc, #132]	; (80014b8 <HAL_RCC_ClockConfig+0x140>)
 8001432:	2a01      	cmp	r2, #1
 8001434:	d119      	bne.n	800146a <HAL_RCC_ClockConfig+0xf2>
 8001436:	683b      	ldr	r3, [r7, #0]
 8001438:	039b      	lsls	r3, r3, #14
 800143a:	d5a2      	bpl.n	8001382 <HAL_RCC_ClockConfig+0xa>
 800143c:	2107      	movs	r1, #7
 800143e:	68bb      	ldr	r3, [r7, #8]
 8001440:	438b      	bics	r3, r1
 8001442:	4313      	orrs	r3, r2
 8001444:	60bb      	str	r3, [r7, #8]
 8001446:	f7ff fbfb 	bl	8000c40 <HAL_GetTick>
 800144a:	9001      	str	r0, [sp, #4]
 800144c:	2338      	movs	r3, #56	; 0x38
 800144e:	68ba      	ldr	r2, [r7, #8]
 8001450:	401a      	ands	r2, r3
 8001452:	6863      	ldr	r3, [r4, #4]
 8001454:	00db      	lsls	r3, r3, #3
 8001456:	429a      	cmp	r2, r3
 8001458:	d0a0      	beq.n	800139c <HAL_RCC_ClockConfig+0x24>
 800145a:	f7ff fbf1 	bl	8000c40 <HAL_GetTick>
 800145e:	9b01      	ldr	r3, [sp, #4]
 8001460:	1ac0      	subs	r0, r0, r3
 8001462:	4b19      	ldr	r3, [pc, #100]	; (80014c8 <HAL_RCC_ClockConfig+0x150>)
 8001464:	4298      	cmp	r0, r3
 8001466:	d9f1      	bls.n	800144c <HAL_RCC_ClockConfig+0xd4>
 8001468:	e7d0      	b.n	800140c <HAL_RCC_ClockConfig+0x94>
 800146a:	2a02      	cmp	r2, #2
 800146c:	d103      	bne.n	8001476 <HAL_RCC_ClockConfig+0xfe>
 800146e:	683b      	ldr	r3, [r7, #0]
 8001470:	019b      	lsls	r3, r3, #6
 8001472:	d4e3      	bmi.n	800143c <HAL_RCC_ClockConfig+0xc4>
 8001474:	e785      	b.n	8001382 <HAL_RCC_ClockConfig+0xa>
 8001476:	2a00      	cmp	r2, #0
 8001478:	d103      	bne.n	8001482 <HAL_RCC_ClockConfig+0x10a>
 800147a:	683b      	ldr	r3, [r7, #0]
 800147c:	055b      	lsls	r3, r3, #21
 800147e:	d4dd      	bmi.n	800143c <HAL_RCC_ClockConfig+0xc4>
 8001480:	e77f      	b.n	8001382 <HAL_RCC_ClockConfig+0xa>
 8001482:	2302      	movs	r3, #2
 8001484:	2a03      	cmp	r2, #3
 8001486:	d103      	bne.n	8001490 <HAL_RCC_ClockConfig+0x118>
 8001488:	6e39      	ldr	r1, [r7, #96]	; 0x60
 800148a:	4219      	tst	r1, r3
 800148c:	d1d6      	bne.n	800143c <HAL_RCC_ClockConfig+0xc4>
 800148e:	e778      	b.n	8001382 <HAL_RCC_ClockConfig+0xa>
 8001490:	6df9      	ldr	r1, [r7, #92]	; 0x5c
 8001492:	e7fa      	b.n	800148a <HAL_RCC_ClockConfig+0x112>
 8001494:	f7ff fbd4 	bl	8000c40 <HAL_GetTick>
 8001498:	9b01      	ldr	r3, [sp, #4]
 800149a:	1ac0      	subs	r0, r0, r3
 800149c:	4b0a      	ldr	r3, [pc, #40]	; (80014c8 <HAL_RCC_ClockConfig+0x150>)
 800149e:	4298      	cmp	r0, r3
 80014a0:	d988      	bls.n	80013b4 <HAL_RCC_ClockConfig+0x3c>
 80014a2:	e7b3      	b.n	800140c <HAL_RCC_ClockConfig+0x94>
 80014a4:	68ab      	ldr	r3, [r5, #8]
 80014a6:	4a0a      	ldr	r2, [pc, #40]	; (80014d0 <HAL_RCC_ClockConfig+0x158>)
 80014a8:	4013      	ands	r3, r2
 80014aa:	68e2      	ldr	r2, [r4, #12]
 80014ac:	4313      	orrs	r3, r2
 80014ae:	60ab      	str	r3, [r5, #8]
 80014b0:	e788      	b.n	80013c4 <HAL_RCC_ClockConfig+0x4c>
 80014b2:	46c0      	nop			; (mov r8, r8)
 80014b4:	40022000 	.word	0x40022000
 80014b8:	40021000 	.word	0x40021000
 80014bc:	080018cc 	.word	0x080018cc
 80014c0:	2000007c 	.word	0x2000007c
 80014c4:	20000084 	.word	0x20000084
 80014c8:	00001388 	.word	0x00001388
 80014cc:	fffff0ff 	.word	0xfffff0ff
 80014d0:	ffff8fff 	.word	0xffff8fff

080014d4 <HAL_TIM_Base_Start_IT>:
 80014d4:	0002      	movs	r2, r0
 80014d6:	0003      	movs	r3, r0
 80014d8:	2001      	movs	r0, #1
 80014da:	323d      	adds	r2, #61	; 0x3d
 80014dc:	7811      	ldrb	r1, [r2, #0]
 80014de:	4281      	cmp	r1, r0
 80014e0:	d118      	bne.n	8001514 <HAL_TIM_Base_Start_IT+0x40>
 80014e2:	2102      	movs	r1, #2
 80014e4:	7011      	strb	r1, [r2, #0]
 80014e6:	681b      	ldr	r3, [r3, #0]
 80014e8:	68da      	ldr	r2, [r3, #12]
 80014ea:	4302      	orrs	r2, r0
 80014ec:	60da      	str	r2, [r3, #12]
 80014ee:	4a0c      	ldr	r2, [pc, #48]	; (8001520 <HAL_TIM_Base_Start_IT+0x4c>)
 80014f0:	4293      	cmp	r3, r2
 80014f2:	d002      	beq.n	80014fa <HAL_TIM_Base_Start_IT+0x26>
 80014f4:	4a0b      	ldr	r2, [pc, #44]	; (8001524 <HAL_TIM_Base_Start_IT+0x50>)
 80014f6:	4293      	cmp	r3, r2
 80014f8:	d10d      	bne.n	8001516 <HAL_TIM_Base_Start_IT+0x42>
 80014fa:	689a      	ldr	r2, [r3, #8]
 80014fc:	490a      	ldr	r1, [pc, #40]	; (8001528 <HAL_TIM_Base_Start_IT+0x54>)
 80014fe:	2000      	movs	r0, #0
 8001500:	400a      	ands	r2, r1
 8001502:	2a06      	cmp	r2, #6
 8001504:	d006      	beq.n	8001514 <HAL_TIM_Base_Start_IT+0x40>
 8001506:	3907      	subs	r1, #7
 8001508:	428a      	cmp	r2, r1
 800150a:	d003      	beq.n	8001514 <HAL_TIM_Base_Start_IT+0x40>
 800150c:	2201      	movs	r2, #1
 800150e:	6819      	ldr	r1, [r3, #0]
 8001510:	430a      	orrs	r2, r1
 8001512:	601a      	str	r2, [r3, #0]
 8001514:	4770      	bx	lr
 8001516:	681a      	ldr	r2, [r3, #0]
 8001518:	4310      	orrs	r0, r2
 800151a:	6018      	str	r0, [r3, #0]
 800151c:	2000      	movs	r0, #0
 800151e:	e7f9      	b.n	8001514 <HAL_TIM_Base_Start_IT+0x40>
 8001520:	40012c00 	.word	0x40012c00
 8001524:	40000400 	.word	0x40000400
 8001528:	00010007 	.word	0x00010007

0800152c <HAL_TIM_PeriodElapsedCallback>:
 800152c:	4770      	bx	lr

0800152e <HAL_TIM_OC_DelayElapsedCallback>:
 800152e:	4770      	bx	lr

08001530 <HAL_TIM_IC_CaptureCallback>:
 8001530:	4770      	bx	lr

08001532 <HAL_TIM_PWM_PulseFinishedCallback>:
 8001532:	4770      	bx	lr

08001534 <HAL_TIM_TriggerCallback>:
 8001534:	4770      	bx	lr
	...

08001538 <HAL_TIM_IRQHandler>:
 8001538:	2202      	movs	r2, #2
 800153a:	6803      	ldr	r3, [r0, #0]
 800153c:	b510      	push	{r4, lr}
 800153e:	6919      	ldr	r1, [r3, #16]
 8001540:	0004      	movs	r4, r0
 8001542:	4211      	tst	r1, r2
 8001544:	d00e      	beq.n	8001564 <HAL_TIM_IRQHandler+0x2c>
 8001546:	68d9      	ldr	r1, [r3, #12]
 8001548:	4211      	tst	r1, r2
 800154a:	d00b      	beq.n	8001564 <HAL_TIM_IRQHandler+0x2c>
 800154c:	3a05      	subs	r2, #5
 800154e:	611a      	str	r2, [r3, #16]
 8001550:	3204      	adds	r2, #4
 8001552:	7702      	strb	r2, [r0, #28]
 8001554:	699b      	ldr	r3, [r3, #24]
 8001556:	079b      	lsls	r3, r3, #30
 8001558:	d100      	bne.n	800155c <HAL_TIM_IRQHandler+0x24>
 800155a:	e086      	b.n	800166a <HAL_TIM_IRQHandler+0x132>
 800155c:	f7ff ffe8 	bl	8001530 <HAL_TIM_IC_CaptureCallback>
 8001560:	2300      	movs	r3, #0
 8001562:	7723      	strb	r3, [r4, #28]
 8001564:	2204      	movs	r2, #4
 8001566:	6823      	ldr	r3, [r4, #0]
 8001568:	6919      	ldr	r1, [r3, #16]
 800156a:	4211      	tst	r1, r2
 800156c:	d011      	beq.n	8001592 <HAL_TIM_IRQHandler+0x5a>
 800156e:	68d9      	ldr	r1, [r3, #12]
 8001570:	4211      	tst	r1, r2
 8001572:	d00e      	beq.n	8001592 <HAL_TIM_IRQHandler+0x5a>
 8001574:	3a09      	subs	r2, #9
 8001576:	611a      	str	r2, [r3, #16]
 8001578:	3207      	adds	r2, #7
 800157a:	7722      	strb	r2, [r4, #28]
 800157c:	699a      	ldr	r2, [r3, #24]
 800157e:	23c0      	movs	r3, #192	; 0xc0
 8001580:	009b      	lsls	r3, r3, #2
 8001582:	0020      	movs	r0, r4
 8001584:	421a      	tst	r2, r3
 8001586:	d100      	bne.n	800158a <HAL_TIM_IRQHandler+0x52>
 8001588:	e075      	b.n	8001676 <HAL_TIM_IRQHandler+0x13e>
 800158a:	f7ff ffd1 	bl	8001530 <HAL_TIM_IC_CaptureCallback>
 800158e:	2300      	movs	r3, #0
 8001590:	7723      	strb	r3, [r4, #28]
 8001592:	2208      	movs	r2, #8
 8001594:	6823      	ldr	r3, [r4, #0]
 8001596:	6919      	ldr	r1, [r3, #16]
 8001598:	4211      	tst	r1, r2
 800159a:	d00e      	beq.n	80015ba <HAL_TIM_IRQHandler+0x82>
 800159c:	68d9      	ldr	r1, [r3, #12]
 800159e:	4211      	tst	r1, r2
 80015a0:	d00b      	beq.n	80015ba <HAL_TIM_IRQHandler+0x82>
 80015a2:	3a11      	subs	r2, #17
 80015a4:	611a      	str	r2, [r3, #16]
 80015a6:	320d      	adds	r2, #13
 80015a8:	7722      	strb	r2, [r4, #28]
 80015aa:	69db      	ldr	r3, [r3, #28]
 80015ac:	0020      	movs	r0, r4
 80015ae:	079b      	lsls	r3, r3, #30
 80015b0:	d067      	beq.n	8001682 <HAL_TIM_IRQHandler+0x14a>
 80015b2:	f7ff ffbd 	bl	8001530 <HAL_TIM_IC_CaptureCallback>
 80015b6:	2300      	movs	r3, #0
 80015b8:	7723      	strb	r3, [r4, #28]
 80015ba:	2210      	movs	r2, #16
 80015bc:	6823      	ldr	r3, [r4, #0]
 80015be:	6919      	ldr	r1, [r3, #16]
 80015c0:	4211      	tst	r1, r2
 80015c2:	d010      	beq.n	80015e6 <HAL_TIM_IRQHandler+0xae>
 80015c4:	68d9      	ldr	r1, [r3, #12]
 80015c6:	4211      	tst	r1, r2
 80015c8:	d00d      	beq.n	80015e6 <HAL_TIM_IRQHandler+0xae>
 80015ca:	3a21      	subs	r2, #33	; 0x21
 80015cc:	611a      	str	r2, [r3, #16]
 80015ce:	3219      	adds	r2, #25
 80015d0:	7722      	strb	r2, [r4, #28]
 80015d2:	69da      	ldr	r2, [r3, #28]
 80015d4:	23c0      	movs	r3, #192	; 0xc0
 80015d6:	009b      	lsls	r3, r3, #2
 80015d8:	0020      	movs	r0, r4
 80015da:	421a      	tst	r2, r3
 80015dc:	d057      	beq.n	800168e <HAL_TIM_IRQHandler+0x156>
 80015de:	f7ff ffa7 	bl	8001530 <HAL_TIM_IC_CaptureCallback>
 80015e2:	2300      	movs	r3, #0
 80015e4:	7723      	strb	r3, [r4, #28]
 80015e6:	2201      	movs	r2, #1
 80015e8:	6823      	ldr	r3, [r4, #0]
 80015ea:	6919      	ldr	r1, [r3, #16]
 80015ec:	4211      	tst	r1, r2
 80015ee:	d007      	beq.n	8001600 <HAL_TIM_IRQHandler+0xc8>
 80015f0:	68d9      	ldr	r1, [r3, #12]
 80015f2:	4211      	tst	r1, r2
 80015f4:	d004      	beq.n	8001600 <HAL_TIM_IRQHandler+0xc8>
 80015f6:	3a03      	subs	r2, #3
 80015f8:	0020      	movs	r0, r4
 80015fa:	611a      	str	r2, [r3, #16]
 80015fc:	f7ff ff96 	bl	800152c <HAL_TIM_PeriodElapsedCallback>
 8001600:	2280      	movs	r2, #128	; 0x80
 8001602:	6823      	ldr	r3, [r4, #0]
 8001604:	6919      	ldr	r1, [r3, #16]
 8001606:	4211      	tst	r1, r2
 8001608:	d008      	beq.n	800161c <HAL_TIM_IRQHandler+0xe4>
 800160a:	68d9      	ldr	r1, [r3, #12]
 800160c:	4211      	tst	r1, r2
 800160e:	d005      	beq.n	800161c <HAL_TIM_IRQHandler+0xe4>
 8001610:	3a02      	subs	r2, #2
 8001612:	3aff      	subs	r2, #255	; 0xff
 8001614:	0020      	movs	r0, r4
 8001616:	611a      	str	r2, [r3, #16]
 8001618:	f000 f8ad 	bl	8001776 <HAL_TIMEx_BreakCallback>
 800161c:	6823      	ldr	r3, [r4, #0]
 800161e:	691a      	ldr	r2, [r3, #16]
 8001620:	05d2      	lsls	r2, r2, #23
 8001622:	d507      	bpl.n	8001634 <HAL_TIM_IRQHandler+0xfc>
 8001624:	68da      	ldr	r2, [r3, #12]
 8001626:	0612      	lsls	r2, r2, #24
 8001628:	d504      	bpl.n	8001634 <HAL_TIM_IRQHandler+0xfc>
 800162a:	4a1c      	ldr	r2, [pc, #112]	; (800169c <HAL_TIM_IRQHandler+0x164>)
 800162c:	0020      	movs	r0, r4
 800162e:	611a      	str	r2, [r3, #16]
 8001630:	f000 f8a2 	bl	8001778 <HAL_TIMEx_Break2Callback>
 8001634:	2240      	movs	r2, #64	; 0x40
 8001636:	6823      	ldr	r3, [r4, #0]
 8001638:	6919      	ldr	r1, [r3, #16]
 800163a:	4211      	tst	r1, r2
 800163c:	d007      	beq.n	800164e <HAL_TIM_IRQHandler+0x116>
 800163e:	68d9      	ldr	r1, [r3, #12]
 8001640:	4211      	tst	r1, r2
 8001642:	d004      	beq.n	800164e <HAL_TIM_IRQHandler+0x116>
 8001644:	3a81      	subs	r2, #129	; 0x81
 8001646:	0020      	movs	r0, r4
 8001648:	611a      	str	r2, [r3, #16]
 800164a:	f7ff ff73 	bl	8001534 <HAL_TIM_TriggerCallback>
 800164e:	2220      	movs	r2, #32
 8001650:	6823      	ldr	r3, [r4, #0]
 8001652:	6919      	ldr	r1, [r3, #16]
 8001654:	4211      	tst	r1, r2
 8001656:	d007      	beq.n	8001668 <HAL_TIM_IRQHandler+0x130>
 8001658:	68d9      	ldr	r1, [r3, #12]
 800165a:	4211      	tst	r1, r2
 800165c:	d004      	beq.n	8001668 <HAL_TIM_IRQHandler+0x130>
 800165e:	3a41      	subs	r2, #65	; 0x41
 8001660:	0020      	movs	r0, r4
 8001662:	611a      	str	r2, [r3, #16]
 8001664:	f000 f886 	bl	8001774 <HAL_TIMEx_CommutCallback>
 8001668:	bd10      	pop	{r4, pc}
 800166a:	f7ff ff60 	bl	800152e <HAL_TIM_OC_DelayElapsedCallback>
 800166e:	0020      	movs	r0, r4
 8001670:	f7ff ff5f 	bl	8001532 <HAL_TIM_PWM_PulseFinishedCallback>
 8001674:	e774      	b.n	8001560 <HAL_TIM_IRQHandler+0x28>
 8001676:	f7ff ff5a 	bl	800152e <HAL_TIM_OC_DelayElapsedCallback>
 800167a:	0020      	movs	r0, r4
 800167c:	f7ff ff59 	bl	8001532 <HAL_TIM_PWM_PulseFinishedCallback>
 8001680:	e785      	b.n	800158e <HAL_TIM_IRQHandler+0x56>
 8001682:	f7ff ff54 	bl	800152e <HAL_TIM_OC_DelayElapsedCallback>
 8001686:	0020      	movs	r0, r4
 8001688:	f7ff ff53 	bl	8001532 <HAL_TIM_PWM_PulseFinishedCallback>
 800168c:	e793      	b.n	80015b6 <HAL_TIM_IRQHandler+0x7e>
 800168e:	f7ff ff4e 	bl	800152e <HAL_TIM_OC_DelayElapsedCallback>
 8001692:	0020      	movs	r0, r4
 8001694:	f7ff ff4d 	bl	8001532 <HAL_TIM_PWM_PulseFinishedCallback>
 8001698:	e7a3      	b.n	80015e2 <HAL_TIM_IRQHandler+0xaa>
 800169a:	46c0      	nop			; (mov r8, r8)
 800169c:	fffffeff 	.word	0xfffffeff

080016a0 <TIM_Base_SetConfig>:
 80016a0:	4a19      	ldr	r2, [pc, #100]	; (8001708 <TIM_Base_SetConfig+0x68>)
 80016a2:	b510      	push	{r4, lr}
 80016a4:	6803      	ldr	r3, [r0, #0]
 80016a6:	4290      	cmp	r0, r2
 80016a8:	d002      	beq.n	80016b0 <TIM_Base_SetConfig+0x10>
 80016aa:	4c18      	ldr	r4, [pc, #96]	; (800170c <TIM_Base_SetConfig+0x6c>)
 80016ac:	42a0      	cmp	r0, r4
 80016ae:	d108      	bne.n	80016c2 <TIM_Base_SetConfig+0x22>
 80016b0:	2470      	movs	r4, #112	; 0x70
 80016b2:	43a3      	bics	r3, r4
 80016b4:	684c      	ldr	r4, [r1, #4]
 80016b6:	4323      	orrs	r3, r4
 80016b8:	4290      	cmp	r0, r2
 80016ba:	d00b      	beq.n	80016d4 <TIM_Base_SetConfig+0x34>
 80016bc:	4c13      	ldr	r4, [pc, #76]	; (800170c <TIM_Base_SetConfig+0x6c>)
 80016be:	42a0      	cmp	r0, r4
 80016c0:	d008      	beq.n	80016d4 <TIM_Base_SetConfig+0x34>
 80016c2:	4c13      	ldr	r4, [pc, #76]	; (8001710 <TIM_Base_SetConfig+0x70>)
 80016c4:	42a0      	cmp	r0, r4
 80016c6:	d005      	beq.n	80016d4 <TIM_Base_SetConfig+0x34>
 80016c8:	4c12      	ldr	r4, [pc, #72]	; (8001714 <TIM_Base_SetConfig+0x74>)
 80016ca:	42a0      	cmp	r0, r4
 80016cc:	d002      	beq.n	80016d4 <TIM_Base_SetConfig+0x34>
 80016ce:	4c12      	ldr	r4, [pc, #72]	; (8001718 <TIM_Base_SetConfig+0x78>)
 80016d0:	42a0      	cmp	r0, r4
 80016d2:	d103      	bne.n	80016dc <TIM_Base_SetConfig+0x3c>
 80016d4:	4c11      	ldr	r4, [pc, #68]	; (800171c <TIM_Base_SetConfig+0x7c>)
 80016d6:	4023      	ands	r3, r4
 80016d8:	68cc      	ldr	r4, [r1, #12]
 80016da:	4323      	orrs	r3, r4
 80016dc:	2480      	movs	r4, #128	; 0x80
 80016de:	43a3      	bics	r3, r4
 80016e0:	694c      	ldr	r4, [r1, #20]
 80016e2:	4323      	orrs	r3, r4
 80016e4:	6003      	str	r3, [r0, #0]
 80016e6:	688b      	ldr	r3, [r1, #8]
 80016e8:	62c3      	str	r3, [r0, #44]	; 0x2c
 80016ea:	680b      	ldr	r3, [r1, #0]
 80016ec:	6283      	str	r3, [r0, #40]	; 0x28
 80016ee:	4290      	cmp	r0, r2
 80016f0:	d005      	beq.n	80016fe <TIM_Base_SetConfig+0x5e>
 80016f2:	4b08      	ldr	r3, [pc, #32]	; (8001714 <TIM_Base_SetConfig+0x74>)
 80016f4:	4298      	cmp	r0, r3
 80016f6:	d002      	beq.n	80016fe <TIM_Base_SetConfig+0x5e>
 80016f8:	4b07      	ldr	r3, [pc, #28]	; (8001718 <TIM_Base_SetConfig+0x78>)
 80016fa:	4298      	cmp	r0, r3
 80016fc:	d101      	bne.n	8001702 <TIM_Base_SetConfig+0x62>
 80016fe:	690b      	ldr	r3, [r1, #16]
 8001700:	6303      	str	r3, [r0, #48]	; 0x30
 8001702:	2301      	movs	r3, #1
 8001704:	6143      	str	r3, [r0, #20]
 8001706:	bd10      	pop	{r4, pc}
 8001708:	40012c00 	.word	0x40012c00
 800170c:	40000400 	.word	0x40000400
 8001710:	40002000 	.word	0x40002000
 8001714:	40014400 	.word	0x40014400
 8001718:	40014800 	.word	0x40014800
 800171c:	fffffcff 	.word	0xfffffcff

08001720 <HAL_TIM_Base_Init>:
 8001720:	b570      	push	{r4, r5, r6, lr}
 8001722:	0004      	movs	r4, r0
 8001724:	2001      	movs	r0, #1
 8001726:	2c00      	cmp	r4, #0
 8001728:	d023      	beq.n	8001772 <HAL_TIM_Base_Init+0x52>
 800172a:	0025      	movs	r5, r4
 800172c:	353d      	adds	r5, #61	; 0x3d
 800172e:	782b      	ldrb	r3, [r5, #0]
 8001730:	b2da      	uxtb	r2, r3
 8001732:	2b00      	cmp	r3, #0
 8001734:	d105      	bne.n	8001742 <HAL_TIM_Base_Init+0x22>
 8001736:	0023      	movs	r3, r4
 8001738:	333c      	adds	r3, #60	; 0x3c
 800173a:	0020      	movs	r0, r4
 800173c:	701a      	strb	r2, [r3, #0]
 800173e:	f7ff f9f1 	bl	8000b24 <HAL_TIM_Base_MspInit>
 8001742:	2302      	movs	r3, #2
 8001744:	702b      	strb	r3, [r5, #0]
 8001746:	6820      	ldr	r0, [r4, #0]
 8001748:	1d21      	adds	r1, r4, #4
 800174a:	f7ff ffa9 	bl	80016a0 <TIM_Base_SetConfig>
 800174e:	0022      	movs	r2, r4
 8001750:	2301      	movs	r3, #1
 8001752:	2000      	movs	r0, #0
 8001754:	3248      	adds	r2, #72	; 0x48
 8001756:	7013      	strb	r3, [r2, #0]
 8001758:	3447      	adds	r4, #71	; 0x47
 800175a:	3a0a      	subs	r2, #10
 800175c:	7013      	strb	r3, [r2, #0]
 800175e:	7053      	strb	r3, [r2, #1]
 8001760:	7093      	strb	r3, [r2, #2]
 8001762:	70d3      	strb	r3, [r2, #3]
 8001764:	7113      	strb	r3, [r2, #4]
 8001766:	7153      	strb	r3, [r2, #5]
 8001768:	7193      	strb	r3, [r2, #6]
 800176a:	71d3      	strb	r3, [r2, #7]
 800176c:	7213      	strb	r3, [r2, #8]
 800176e:	7023      	strb	r3, [r4, #0]
 8001770:	702b      	strb	r3, [r5, #0]
 8001772:	bd70      	pop	{r4, r5, r6, pc}

08001774 <HAL_TIMEx_CommutCallback>:
 8001774:	4770      	bx	lr

08001776 <HAL_TIMEx_BreakCallback>:
 8001776:	4770      	bx	lr

08001778 <HAL_TIMEx_Break2Callback>:
 8001778:	4770      	bx	lr
	...

0800177c <__libc_init_array>:
 800177c:	b570      	push	{r4, r5, r6, lr}
 800177e:	2600      	movs	r6, #0
 8001780:	4d0c      	ldr	r5, [pc, #48]	; (80017b4 <__libc_init_array+0x38>)
 8001782:	4c0d      	ldr	r4, [pc, #52]	; (80017b8 <__libc_init_array+0x3c>)
 8001784:	1b64      	subs	r4, r4, r5
 8001786:	10a4      	asrs	r4, r4, #2
 8001788:	42a6      	cmp	r6, r4
 800178a:	d109      	bne.n	80017a0 <__libc_init_array+0x24>
 800178c:	2600      	movs	r6, #0
 800178e:	f000 f821 	bl	80017d4 <_init>
 8001792:	4d0a      	ldr	r5, [pc, #40]	; (80017bc <__libc_init_array+0x40>)
 8001794:	4c0a      	ldr	r4, [pc, #40]	; (80017c0 <__libc_init_array+0x44>)
 8001796:	1b64      	subs	r4, r4, r5
 8001798:	10a4      	asrs	r4, r4, #2
 800179a:	42a6      	cmp	r6, r4
 800179c:	d105      	bne.n	80017aa <__libc_init_array+0x2e>
 800179e:	bd70      	pop	{r4, r5, r6, pc}
 80017a0:	00b3      	lsls	r3, r6, #2
 80017a2:	58eb      	ldr	r3, [r5, r3]
 80017a4:	4798      	blx	r3
 80017a6:	3601      	adds	r6, #1
 80017a8:	e7ee      	b.n	8001788 <__libc_init_array+0xc>
 80017aa:	00b3      	lsls	r3, r6, #2
 80017ac:	58eb      	ldr	r3, [r5, r3]
 80017ae:	4798      	blx	r3
 80017b0:	3601      	adds	r6, #1
 80017b2:	e7f2      	b.n	800179a <__libc_init_array+0x1e>
 80017b4:	0800190c 	.word	0x0800190c
 80017b8:	0800190c 	.word	0x0800190c
 80017bc:	0800190c 	.word	0x0800190c
 80017c0:	08001910 	.word	0x08001910

080017c4 <memset>:
 80017c4:	0003      	movs	r3, r0
 80017c6:	1882      	adds	r2, r0, r2
 80017c8:	4293      	cmp	r3, r2
 80017ca:	d100      	bne.n	80017ce <memset+0xa>
 80017cc:	4770      	bx	lr
 80017ce:	7019      	strb	r1, [r3, #0]
 80017d0:	3301      	adds	r3, #1
 80017d2:	e7f9      	b.n	80017c8 <memset+0x4>

080017d4 <_init>:
 80017d4:	b5f8      	push	{r3, r4, r5, r6, r7, lr}
 80017d6:	46c0      	nop			; (mov r8, r8)
 80017d8:	bcf8      	pop	{r3, r4, r5, r6, r7}
 80017da:	bc08      	pop	{r3}
 80017dc:	469e      	mov	lr, r3
 80017de:	4770      	bx	lr

080017e0 <_fini>:
 80017e0:	b5f8      	push	{r3, r4, r5, r6, r7, lr}
 80017e2:	46c0      	nop			; (mov r8, r8)
 80017e4:	bcf8      	pop	{r3, r4, r5, r6, r7}
 80017e6:	bc08      	pop	{r3}
 80017e8:	469e      	mov	lr, r3
 80017ea:	4770      	bx	lr
